

HI-TECH Software PIC PRO Macro Assembler V9.83 build 10920 
                                                                                               Fri Mar 26 15:07:29 2021

HI-TECH Software Omniscient Code Generator (PRO mode) build 10920
     1                           	processor	16F1933
     2                           	opt	pw 120
     3                           	opt	pm
     4                           	psect	config,global,class=CONFIG,delta=2
     5                           	psect	idataBANK0,global,class=CODE,delta=2
     6                           	psect	cinit,global,class=CODE,delta=2
     7                           	psect	bssCOMMON,global,class=COMMON,space=1,delta=1
     8                           	psect	bssBANK0,global,class=BANK0,space=1,delta=1
     9                           	psect	dataBANK0,global,class=BANK0,space=1,delta=1
    10                           	psect	clrtext,global,class=CODE,delta=2
    11                           	psect	cstackCOMMON,global,class=COMMON,space=1,delta=1
    12                           	psect	cstackBANK0,global,class=BANK0,space=1,delta=1
    13                           	psect	intentry,global,class=CODE,delta=2
    14                           	psect	text333,local,class=CODE,delta=2
    15                           	psect	text336,local,class=CODE,delta=2
    16                           	psect	pa_nodes,global,class=CODE,delta=2
    17                           	dabs	1,0x7E,2
    18  000A                     	;#
    19                           
    20                           	psect	config
    21  8007  F924               	dw	63780	;#
    22  8008  DDFF               	dw	56831	;#
    23                           
    24                           	psect	idataBANK0
    25  0000                     __pidataBANK0:	
    26  000B                     _INTCON	set	11
    27  005F                     _GIE	set	95
    28  008D                     _RCIF	set	141
    29  005D                     _TMR0IE	set	93
    30  005A                     _TMR0IF	set	90
    31  008C                     _TXIF	set	140
    32  0095                     _OPTION_REG	set	149
    33  0099                     _OSCCON	set	153
    34  008C                     _TRISA	set	140
    35  008D                     _TRISB	set	141
    36  008E                     _TRISC	set	142
    37  0476                     _TRISC6	set	1142
    38  0477                     _TRISC7	set	1143
    39  010C                     _LATA	set	268
    40  010D                     _LATB	set	269
    41  010E                     _LATC	set	270
    42  0860                     _LATA0	set	2144
    43  0861                     _LATA1	set	2145
    44  0862                     _LATA2	set	2146
    45  0863                     _LATA3	set	2147
    46  0864                     _LATA4	set	2148
    47  0865                     _LATA5	set	2149
    48  0867                     _LATA7	set	2151
    49  0869                     _LATB1	set	2153
    50  086A                     _LATB2	set	2154
    51  086B                     _LATB3	set	2155
    52  086C                     _LATB4	set	2156
    53  018C                     _ANSELA	set	396
    54  018D                     _ANSELB	set	397
    55  019F                     _BAUDCON	set	415
    56  0199                     _RCREG	set	409
    57  019D                     _RCSTA	set	413
    58  019B                     _SPBRG	set	411
    59  019C                     _SPBRGH	set	412
    60  019B                     _SPBRGL	set	411
    61  019A                     _TXREG	set	410
    62  019E                     _TXSTA	set	414
    63  0CEC                     _CREN	set	3308
    64  0CEA                     _FERR	set	3306
    65  0CE9                     _OERR	set	3305
    66  0CEF                     _SPEN	set	3311
    67  020D                     _WPUB	set	525
    68                           
    69                           	psect	cinit
    70  0087                     start_initialization:	
    71  0087  3020               	movlw	low __pbssBANK0
    72                           
    73                           ; Clear objects allocated to COMMON
    74  0088  01F0               	clrf	__pbssCOMMON& (0+127)
    75  0089  01F1               	clrf	(__pbssCOMMON+1)& (0+127)
    76                           
    77                           ; Clear objects allocated to BANK0
    78  008A  0084               	movwf	4
    79  008B  3000               	movlw	high __pbssBANK0
    80  008C  0085               	movwf	5
    81  008D  302A               	movlw	42
    82  008E  3183  237D  3180   	fcall	clear_ram
    83                           
    84                           ;initializer for _time_out
    85  0091  30C8               	movlw	200
    86  0092  00D4               	movwf	__pdataBANK0& (0+127)
    87  0093  01D5               	clrf	(__pdataBANK0+1)& (0+127)
    88                           
    89                           ;initializer for _vent_c
    90  0094  00D6               	movwf	(__pdataBANK0+2)& (0+127)
    91  0095  3028               	movlw	40
    92  0096  01D7               	clrf	(__pdataBANK0+3)& (0+127)
    93                           
    94                           ;initializer for _massageSecTimer
    95  0097  00D8               	movwf	(__pdataBANK0+4)& (0+127)
    96                           
    97                           ;initializer for _pulsePhase
    98  0098  3001               	movlw	1
    99  0099  00D9               	movwf	(__pdataBANK0+5)& (0+127)
   100  009A                     end_of_initialization:	
   101                           ;End of C runtime variable initialization code
   102                           
   103  009A  0020               	movlb	0
   104  009B  289C               	ljmp	_main	;jump to C main() function
   105  009C                     __pmaintext:	
   106 ;;Data sizes: Strings 0, constant 0, data 6, bss 44, persistent 0 stack 0
   107 ;;Auto spaces:   Size  Autos    Used
   108 ;; COMMON          14      2       4
   109 ;; BANK0           80     10      58
   110 ;; BANK1           80      0       0
   111 ;; BANK2           80      0       0
   112 ;;
   113 ;; Pointer list with targets:
   114 ;;
   115 ;; Critical Paths under _main in COMMON
   116 ;;
   117 ;;   _main->_putch
   118 ;;
   119 ;; Critical Paths under _isr in COMMON
   120 ;;
   121 ;;   None.
   122 ;;
   123 ;; Critical Paths under _main in BANK0
   124 ;;
   125 ;;   None.
   126 ;;
   127 ;; Critical Paths under _isr in BANK0
   128 ;;
   129 ;;   None.
   130 ;;
   131 ;; Critical Paths under _main in BANK1
   132 ;;
   133 ;;   None.
   134 ;;
   135 ;; Critical Paths under _isr in BANK1
   136 ;;
   137 ;;   None.
   138 ;;
   139 ;; Critical Paths under _main in BANK2
   140 ;;
   141 ;;   None.
   142 ;;
   143 ;; Critical Paths under _isr in BANK2
   144 ;;
   145 ;;   None.
   146 ;;
   147 ;;Main: autosize = 0, tempsize = 0, incstack = 0, save=0
   148 ;;
   149 ;;
   150 ;;Call Graph Tables:
   151 ;;
   152 ;; ---------------------------------------------------------------------------------
   153 ;; (Depth) Function   	        Calls       Base Space   Used Autos Params    Refs
   154 ;; ---------------------------------------------------------------------------------
   155 ;; (0) _main                                                10    10      0     535
   156 ;;                                              0 BANK0     10    10      0
   157 ;;                              _getch
   158 ;;                              _putch
   159 ;;                     _jct_massage_on
   160 ;;                    _jct_massage_off
   161 ;;                  _jct_massage_reset
   162 ;; ---------------------------------------------------------------------------------
   163 ;; (1) _jct_massage_reset                                    0     0      0       0
   164 ;; ---------------------------------------------------------------------------------
   165 ;; (1) _jct_massage_off                                      0     0      0       0
   166 ;; ---------------------------------------------------------------------------------
   167 ;; (1) _jct_massage_on                                       0     0      0       0
   168 ;; ---------------------------------------------------------------------------------
   169 ;; (1) _getch                                                0     0      0       0
   170 ;; ---------------------------------------------------------------------------------
   171 ;; (1) _putch                                                1     1      0      31
   172 ;;                                              1 COMMON     1     1      0
   173 ;; ---------------------------------------------------------------------------------
   174 ;; Estimated maximum stack depth 1
   175 ;; ---------------------------------------------------------------------------------
   176 ;; (Depth) Function   	        Calls       Base Space   Used Autos Params    Refs
   177 ;; ---------------------------------------------------------------------------------
   178 ;; (2) _isr                                                  1     1      0       0
   179 ;;                                              0 COMMON     1     1      0
   180 ;;                i1_jct_massage_reset
   181 ;;                            _massage
   182 ;; ---------------------------------------------------------------------------------
   183 ;; (3) _massage                                              0     0      0       0
   184 ;;                  i1_jct_massage_off
   185 ;;                i1_jct_massage_reset
   186 ;; ---------------------------------------------------------------------------------
   187 ;; (4) i1_jct_massage_reset                                  0     0      0       0
   188 ;; ---------------------------------------------------------------------------------
   189 ;; (4) i1_jct_massage_off                                    0     0      0       0
   190 ;; ---------------------------------------------------------------------------------
   191 ;; Estimated maximum stack depth 4
   192 ;; ---------------------------------------------------------------------------------
   193 ;; Call Graph Graphs:
   194 ;; _main (ROOT)
   195 ;;   _getch
   196 ;;   _putch
   197 ;;   _jct_massage_on
   198 ;;   _jct_massage_off
   199 ;;   _jct_massage_reset
   200 ;;
   201 ;; _isr (ROOT)
   202 ;;   i1_jct_massage_reset
   203 ;;   _massage
   204 ;;     i1_jct_massage_off
   205 ;;     i1_jct_massage_reset
   206 ;;
   207 ;; Address spaces:
   208 ;;Name               Size   Autos  Total    Cost      Usage
   209 ;;BIGRAM              F0      0       0       0        0.0%
   210 ;;EEDATA             100      0       0       0        0.0%
   211 ;;NULL                 0      0       0       0        0.0%
   212 ;;CODE                 0      0       0       0        0.0%
   213 ;;BITCOMMON            E      0       0       1        0.0%
   214 ;;BITSFR0              0      0       0       1        0.0%
   215 ;;SFR0                 0      0       0       1        0.0%
   216 ;;COMMON               E      2       4       2       28.6%
   217 ;;BITSFR1              0      0       0       2        0.0%
   218 ;;SFR1                 0      0       0       2        0.0%
   219 ;;BITSFR2              0      0       0       3        0.0%
   220 ;;SFR2                 0      0       0       3        0.0%
   221 ;;STACK                0      0       7       3        0.0%
   222 ;;BITSFR3              0      0       0       4        0.0%
   223 ;;SFR3                 0      0       0       4        0.0%
   224 ;;ABS                  0      0      3E       4        0.0%
   225 ;;BITBANK0            50      0       0       5        0.0%
   226 ;;BITSFR4              0      0       0       5        0.0%
   227 ;;SFR4                 0      0       0       5        0.0%
   228 ;;BANK0               50      A      3A       6       72.5%
   229 ;;BITSFR5              0      0       0       6        0.0%
   230 ;;SFR5                 0      0       0       6        0.0%
   231 ;;BITBANK1            50      0       0       7        0.0%
   232 ;;BITSFR6              0      0       0       7        0.0%
   233 ;;SFR6                 0      0       0       7        0.0%
   234 ;;BANK1               50      0       0       8        0.0%
   235 ;;BITSFR7              0      0       0       8        0.0%
   236 ;;SFR7                 0      0       0       8        0.0%
   237 ;;BITBANK2            50      0       0       9        0.0%
   238 ;;BITSFR8              0      0       0       9        0.0%
   239 ;;SFR8                 0      0       0       9        0.0%
   240 ;;BANK2               50      0       0      10        0.0%
   241 ;;BITSFR9              0      0       0      10        0.0%
   242 ;;SFR9                 0      0       0      10        0.0%
   243 ;;BITSFR10             0      0       0      11        0.0%
   244 ;;SFR10                0      0       0      11        0.0%
   245 ;;DATA                 0      0      45      11        0.0%
   246 ;;BITSFR11             0      0       0      12        0.0%
   247 ;;SFR11                0      0       0      12        0.0%
   248 ;;BITSFR12             0      0       0      13        0.0%
   249 ;;SFR12                0      0       0      13        0.0%
   250 ;;BITSFR13             0      0       0      14        0.0%
   251 ;;SFR13                0      0       0      14        0.0%
   252 ;;BITSFR14             0      0       0      15        0.0%
   253 ;;SFR14                0      0       0      15        0.0%
   254 ;;BITSFR15             0      0       0      16        0.0%
   255 ;;SFR15                0      0       0      16        0.0%
   256 ;;BITSFR16             0      0       0      17        0.0%
   257 ;;SFR16                0      0       0      17        0.0%
   258 ;;BITSFR17             0      0       0      18        0.0%
   259 ;;SFR17                0      0       0      18        0.0%
   260 ;;BITSFR18             0      0       0      19        0.0%
   261 ;;SFR18                0      0       0      19        0.0%
   262 ;;BITSFR19             0      0       0      20        0.0%
   263 ;;SFR19                0      0       0      20        0.0%
   264 ;;BITSFR20             0      0       0      21        0.0%
   265 ;;SFR20                0      0       0      21        0.0%
   266 ;;BITSFR21             0      0       0      22        0.0%
   267 ;;SFR21                0      0       0      22        0.0%
   268 ;;BITSFR22             0      0       0      23        0.0%
   269 ;;SFR22                0      0       0      23        0.0%
   270 ;;BITSFR23             0      0       0      24        0.0%
   271 ;;SFR23                0      0       0      24        0.0%
   272 ;;BITSFR24             0      0       0      25        0.0%
   273 ;;SFR24                0      0       0      25        0.0%
   274 ;;BITSFR25             0      0       0      26        0.0%
   275 ;;SFR25                0      0       0      26        0.0%
   276 ;;BITSFR26             0      0       0      27        0.0%
   277 ;;SFR26                0      0       0      27        0.0%
   278 ;;BITSFR27             0      0       0      28        0.0%
   279 ;;SFR27                0      0       0      28        0.0%
   280 ;;BITSFR28             0      0       0      29        0.0%
   281 ;;SFR28                0      0       0      29        0.0%
   282 ;;BITSFR29             0      0       0      30        0.0%
   283 ;;SFR29                0      0       0      30        0.0%
   284 ;;BITSFR30             0      0       0      31        0.0%
   285 ;;SFR30                0      0       0      31        0.0%
   286 ;;BITSFR31             0      0       0      32        0.0%
   287 ;;SFR31                0      0       0      32        0.0%
   288                           
   289                           
   290 ;; *************** function _main *****************
   291 ;; Defined at:
   292 ;;		line 228 in file "L210004 JCT.c"
   293 ;; Parameters:    Size  Location     Type
   294 ;;		None
   295 ;; Auto vars:     Size  Location     Type
   296 ;;  i               2    3[BANK0 ] unsigned int 
   297 ;;  i               2    5[BANK0 ] unsigned int 
   298 ;;  i               2    8[BANK0 ] unsigned int 
   299 ;;  q               2    1[BANK0 ] unsigned int 
   300 ;;  c               1    7[BANK0 ] unsigned char 
   301 ;;  echo            1    0[BANK0 ] unsigned char 
   302 ;; Return value:  Size  Location     Type
   303 ;;		None               void
   304 ;; Registers used:
   305 ;;		wreg, fsr1l, fsr1h, status,2, status,0, pclath, cstack
   306 ;; Tracked objects:
   307 ;;		On entry : 17F/0
   308 ;;		On exit  : 1F/2
   309 ;;		Unchanged: 0/0
   310 ;; Data sizes:     COMMON   BANK0   BANK1   BANK2
   311 ;;      Params:         0       0       0       0
   312 ;;      Locals:         0      10       0       0
   313 ;;      Temps:          0       0       0       0
   314 ;;      Totals:         0      10       0       0
   315 ;;Total ram usage:       10 bytes
   316 ;; Hardware stack levels required when called:    4
   317 ;; This function calls:
   318 ;;		_getch
   319 ;;		_putch
   320 ;;		_jct_massage_on
   321 ;;		_jct_massage_off
   322 ;;		_jct_massage_reset
   323 ;; This function is called by:
   324 ;;		Startup code after reset
   325 ;; This function uses a non-reentrant model
   326 ;;
   327  009C                     _main:	
   328                           
   329                           ;L210004 JCT.c: 230: OSCCON = 0b01101000;
   330                           
   331                           ; Regs used in _main: [wreg+fsr1l-status,0+pclath+cstack]
   332  009C  3068               	movlw	104
   333  009D  0021               	movlb	1	; select bank1
   334  009E  0099               	movwf	25	;volatile
   335  009F  3019               	movlw	25
   336                           
   337                           ;L210004 JCT.c: 231: TRISC7 = 1; TRISC6 = 1; SPBRG = ((int)(4000000L/(16UL * 9600) -1));
      +                           RCSTA = (0|0x90); TXSTA = (0x4|0|0x20);
   338  00A0  178E               	bsf	14,7
   339  00A1  170E               	bsf	14,6
   340  00A2  0023               	movlb	3	; select bank3
   341  00A3  009B               	movwf	27	;volatile
   342  00A4  3090               	movlw	144
   343  00A5  009D               	movwf	29	;volatile
   344  00A6  3024               	movlw	36
   345  00A7  009E               	movwf	30	;volatile
   346                           
   347                           ;L210004 JCT.c: 235: TRISA = 0b01000000;
   348  00A8  3040               	movlw	64
   349  00A9  0021               	movlb	1	; select bank1
   350  00AA  008C               	movwf	12	;volatile
   351                           
   352                           ;L210004 JCT.c: 244: ANSELA = 0b00000000;
   353  00AB  0023               	movlb	3	; select bank3
   354  00AC  018C               	clrf	12	;volatile
   355                           
   356                           ;L210004 JCT.c: 246: TRISB = 0b11100001;
   357  00AD  30E1               	movlw	225
   358  00AE  0021               	movlb	1	; select bank1
   359  00AF  008D               	movwf	13	;volatile
   360                           
   361                           ;L210004 JCT.c: 255: ANSELB = 0b00000000;
   362  00B0  0023               	movlb	3	; select bank3
   363  00B1  018D               	clrf	13	;volatile
   364                           
   365                           ;L210004 JCT.c: 257: TRISC = 0b10111111;
   366  00B2  30BF               	movlw	191
   367  00B3  0021               	movlb	1	; select bank1
   368  00B4  008E               	movwf	14	;volatile
   369                           
   370                           ;L210004 JCT.c: 269: INTCON = 0b10100000;
   371  00B5  30A0               	movlw	160
   372  00B6  008B               	movwf	11	;volatile
   373                           
   374                           ;L210004 JCT.c: 280: BAUDCON = 0b00000000;
   375  00B7  0023               	movlb	3	; select bank3
   376  00B8  019F               	clrf	31	;volatile
   377                           
   378                           ;L210004 JCT.c: 281: SPBRGL = 0x0C;
   379  00B9  300C               	movlw	12
   380  00BA  009B               	movwf	27	;volatile
   381                           
   382                           ;L210004 JCT.c: 282: SPBRGH = 0b00000000;
   383  00BB  019C               	clrf	28	;volatile
   384                           
   385                           ;L210004 JCT.c: 283: OPTION_REG = 0b00001000;
   386  00BC  3008               	movlw	8
   387  00BD  0021               	movlb	1	; select bank1
   388  00BE  0095               	movwf	21	;volatile
   389                           
   390                           ;L210004 JCT.c: 284: WPUB = 0b00000000;
   391  00BF  0024               	movlb	4	; select bank4
   392  00C0  018D               	clrf	13	;volatile
   393                           
   394                           ;L210004 JCT.c: 285: GIE = 1;
   395  00C1  178B               	bsf	11,7
   396                           
   397                           ;L210004 JCT.c: 286: TMR0IE = 1;
   398  00C2  168B               	bsf	11,5
   399                           
   400                           ;L210004 JCT.c: 288: LATA = 0x00;
   401  00C3  0022               	movlb	2	; select bank2
   402  00C4  018C               	clrf	12	;volatile
   403                           
   404                           ;L210004 JCT.c: 289: LATB = 0x00;
   405  00C5  018D               	clrf	13	;volatile
   406                           
   407                           ;L210004 JCT.c: 290: LATC = 0x00;
   408  00C6  018E               	clrf	14	;volatile
   409  00C7                     l5358:	
   410                           
   411                           ;L210004 JCT.c: 295: bool echo = 1;
   412  00C7  0020               	movlb	0	; select bank0
   413  00C8  01CA               	clrf	main@echo
   414  00C9  0ACA               	incf	main@echo,f
   415  00CA                     l5360:	
   416                           
   417                           ;L210004 JCT.c: 299: last_rc[0] = getch();
   418  00CA  225F  3180         	fcall	_getch
   419  00CC  0020               	movlb	0	; select bank0
   420  00CD  00A0               	movwf	_last_rc	;volatile
   421                           
   422                           ;L210004 JCT.c: 300: if(last_rc[0] == '?'){
   423  00CE  3A3F               	xorlw	63
   424  00CF  1D03               	skipz
   425  00D0  28EF               	goto	l5386
   426  00D1                     l5366:	
   427  00D1  3021               	movlw	33
   428                           
   429                           ;L210004 JCT.c: 302: q = 0;
   430  00D2  01CB               	clrf	main@q
   431  00D3  01CC               	clrf	main@q+1
   432                           
   433                           ;L210004 JCT.c: 303: putch('!');
   434  00D4  2279  3180         	fcall	_putch
   435                           
   436                           ;L210004 JCT.c: 304: c = getch();
   437  00D6  225F  3180         	fcall	_getch
   438  00D8  0020               	movlb	0	; select bank0
   439  00D9  00D1               	movwf	main@c
   440                           
   441                           ;L210004 JCT.c: 305: if(c == '~'){
   442  00DA  3A7E               	xorlw	126
   443  00DB  1D03               	skipz
   444  00DC  28F2               	goto	l5388
   445                           
   446                           ;L210004 JCT.c: 307: for(unsigned int i = 0; i < (sizeof(last_rc)/sizeof((last_rc)[0]));
      +                           ++i){
   447  00DD  01CD               	clrf	main@i
   448  00DE  01CE               	clrf	main@i+1
   449  00DF                     l5380:	
   450                           
   451                           ;L210004 JCT.c: 308: last_rc[i] = 0;
   452  00DF  084D               	movf	main@i,w
   453  00E0  3E20               	addlw	_last_rc& (0+255)
   454  00E1  0086               	movwf	6
   455  00E2  0187               	clrf	7
   456  00E3  0181               	clrf	1
   457  00E4  0ACD               	incf	main@i,f
   458  00E5  1903               	skipnz
   459  00E6  0ACE               	incf	main@i+1,f
   460  00E7  3000               	movlw	0
   461  00E8  024E               	subwf	main@i+1,w
   462  00E9  3005               	movlw	5
   463  00EA  1903               	skipnz
   464  00EB  024D               	subwf	main@i,w
   465  00EC  1803               	btfsc	3,0
   466  00ED  28F2               	goto	l5388
   467  00EE  28DF               	goto	l5380
   468  00EF                     l5386:	
   469                           
   470                           ;L210004 JCT.c: 312: else{
   471                           ;L210004 JCT.c: 313: q = 1;
   472  00EF  01CB               	clrf	main@q
   473  00F0  0ACB               	incf	main@q,f
   474  00F1  01CC               	clrf	main@q+1
   475  00F2                     l5388:	
   476                           
   477                           ;L210004 JCT.c: 314: }
   478                           ;L210004 JCT.c: 316: for(unsigned int i = q; i < (sizeof(last_rc)/sizeof((last_rc)[0]));
      +                           ++i){
   479  00F2  084C               	movf	main@q+1,w
   480  00F3  00D3               	movwf	main@i_3027+1
   481  00F4  084B               	movf	main@q,w
   482  00F5  00D2               	movwf	main@i_3027
   483  00F6                     l5390:	
   484  00F6  3000               	movlw	0
   485  00F7  0253               	subwf	main@i_3027+1,w
   486  00F8  3005               	movlw	5
   487  00F9  1903               	skipnz
   488  00FA  0252               	subwf	main@i_3027,w
   489  00FB  1803               	btfsc	3,0
   490  00FC  2911               	goto	l5404
   491                           
   492                           ;L210004 JCT.c: 317: last_rc[i] = getch();
   493  00FD  0852               	movf	main@i_3027,w
   494  00FE  3E20               	addlw	_last_rc& (0+255)
   495  00FF  0086               	movwf	6
   496  0100  0187               	clrf	7
   497  0101  225F  3180         	fcall	_getch
   498  0103  0081               	movwf	1
   499                           
   500                           ;L210004 JCT.c: 318: if(last_rc[i] == '?'){
   501  0104  0020               	movlb	0	; select bank0
   502  0105  0852               	movf	main@i_3027,w
   503  0106  3E20               	addlw	_last_rc& (0+255)
   504  0107  0086               	movwf	6
   505  0108  0187               	clrf	7
   506  0109  0801               	movf	1,w
   507  010A  3A3F               	xorlw	63
   508  010B  1903               	btfsc	3,2
   509  010C  28D1               	goto	l5366
   510  010D  0AD2               	incf	main@i_3027,f
   511  010E  1903               	skipnz
   512  010F  0AD3               	incf	main@i_3027+1,f
   513  0110  28F6               	goto	l5390
   514  0111                     l5404:	
   515                           
   516                           ;L210004 JCT.c: 320: }
   517                           ;L210004 JCT.c: 321: }
   518                           ;L210004 JCT.c: 322: for(unsigned int i = 0; i < (sizeof(last_rc)/sizeof((last_rc)[0]));
      +                           ++i){
   519  0111  01CF               	clrf	main@i_3028
   520  0112  01D0               	clrf	main@i_3028+1
   521  0113                     l5410:	
   522                           
   523                           ;L210004 JCT.c: 323: putch(last_rc[i]);
   524  0113  084F               	movf	main@i_3028,w
   525  0114  3E20               	addlw	_last_rc& (0+255)
   526  0115  0086               	movwf	6
   527  0116  0187               	clrf	7
   528  0117  0801               	movf	1,w
   529  0118  2279  3180         	fcall	_putch
   530                           
   531                           ;L210004 JCT.c: 324: _delay((unsigned long)((5)*(4000000/4000000.0)));
   532  011A  291B               	nop2	;2 cycle nop
   533  011B  291C               	nop2	;2 cycle nop
   534  011C  0064               	clrwdt
   535  011D  0020               	movlb	0	; select bank0
   536  011E  0ACF               	incf	main@i_3028,f
   537  011F  1903               	skipnz
   538  0120  0AD0               	incf	main@i_3028+1,f
   539  0121  3000               	movlw	0
   540  0122  0250               	subwf	main@i_3028+1,w
   541  0123  3005               	movlw	5
   542  0124  1903               	skipnz
   543  0125  024F               	subwf	main@i_3028,w
   544  0126  1C03               	skipc
   545  0127  2913               	goto	l5410
   546                           
   547                           ;L210004 JCT.c: 325: }
   548                           ;L210004 JCT.c: 326: c = getch();
   549  0128  225F  3180         	fcall	_getch
   550  012A  0020               	movlb	0	; select bank0
   551  012B  00D1               	movwf	main@c
   552                           
   553                           ;L210004 JCT.c: 327: if(c == '?'){
   554  012C  3A3F               	xorlw	63
   555  012D  1903               	btfsc	3,2
   556  012E  28D1               	goto	l5366
   557                           
   558                           ;L210004 JCT.c: 330: else if(c == '+'){
   559  012F  0851               	movf	main@c,w
   560  0130  3A2B               	xorlw	43
   561  0131  1D03               	skipz
   562  0132  2936               	goto	l5432
   563                           
   564                           ;L210004 JCT.c: 331: rc = last_rc[0];
   565  0133  0820               	movf	_last_rc,w	;volatile
   566  0134  00F1               	movwf	_rc	;volatile
   567                           
   568                           ;L210004 JCT.c: 332: echo = 0;
   569  0135  01CA               	clrf	main@echo
   570  0136                     l5432:	
   571                           
   572                           ;L210004 JCT.c: 333: }
   573                           ;L210004 JCT.c: 334: }while(echo);
   574  0136  08CA               	movf	main@echo,f
   575  0137  1D03               	skipz
   576  0138  28CA               	goto	l5360
   577                           
   578                           ;L210004 JCT.c: 336: if(rc){
   579  0139  0871               	movf	_rc,w	;volatile
   580  013A  1903               	btfsc	3,2
   581  013B  2942               	goto	l5442
   582                           
   583                           ;L210004 JCT.c: 337: timer = 1;
   584  013C  01C8               	clrf	_timer	;volatile
   585  013D  0AC8               	incf	_timer,f	;volatile
   586                           
   587                           ;L210004 JCT.c: 338: if(rc != 'Y'){
   588  013E  0871               	movf	_rc,w
   589  013F  3A59               	xorlw	89
   590  0140  1D03               	btfss	3,2
   591                           
   592                           ;L210004 JCT.c: 339: vent_t = 0;
   593  0141  01C9               	clrf	_vent_t	;volatile
   594  0142                     l5442:	
   595                           
   596                           ;L210004 JCT.c: 340: }
   597                           ;L210004 JCT.c: 341: }
   598                           ;L210004 JCT.c: 342: if(OERR || FERR){
   599  0142  0023               	movlb	3	; select bank3
   600  0143  189D               	btfsc	29,1
   601  0144  2947               	goto	l5446
   602  0145  1D1D               	btfss	29,2
   603  0146  294F               	goto	l1919
   604  0147                     l5446:	
   605                           
   606                           ;L210004 JCT.c: 343: rc_error = RCSTA;
   607  0147  081D               	movf	29,w	;volatile
   608  0148  0020               	movlb	0	; select bank0
   609  0149  00C7               	movwf	_rc_error	;volatile
   610                           
   611                           ;L210004 JCT.c: 344: CREN = 0;
   612  014A  0023               	movlb	3	; select bank3
   613  014B  121D               	bcf	29,4
   614                           
   615                           ;L210004 JCT.c: 345: SPEN = 0;
   616  014C  139D               	bcf	29,7
   617                           
   618                           ;L210004 JCT.c: 346: CREN = 1;
   619  014D  161D               	bsf	29,4
   620                           
   621                           ;L210004 JCT.c: 347: SPEN = 1;
   622  014E  179D               	bsf	29,7
   623  014F                     l1919:	
   624                           
   625                           ;L210004 JCT.c: 348: }
   626                           ;L210004 JCT.c: 349: if(rc == 'Y'){
   627  014F  0871               	movf	_rc,w
   628  0150  3A59               	xorlw	89
   629  0151  1D03               	skipz
   630  0152  2961               	goto	l5472
   631                           
   632                           ;L210004 JCT.c: 350: LATB4 = 0;
   633  0153  0022               	movlb	2	; select bank2
   634                           
   635                           ;L210004 JCT.c: 351: LATB3 = 0;
   636                           
   637                           ;L210004 JCT.c: 352: LATB1 = 0;
   638                           
   639                           ;L210004 JCT.c: 353: LATB2 = 0;
   640                           
   641                           ;L210004 JCT.c: 354: if(power){
   642  0154  2298  3180         	fcall	PL5	;call to abstracted procedure
   643  0156  0842               	movf	_power,w	;volatile
   644  0157  1D03               	skipz
   645  0158  2961               	goto	l5472
   646                           
   647                           ;L210004 JCT.c: 357: else if(!vent_t){
   648  0159  08C9               	movf	_vent_t,f
   649  015A  1D03               	skipz
   650  015B  2961               	goto	l5472
   651                           
   652                           ;L210004 JCT.c: 358: power = 0;
   653  015C  01C2               	clrf	_power	;volatile
   654                           
   655                           ;L210004 JCT.c: 359: LATA1 = 0;
   656  015D  0022               	movlb	2	; select bank2
   657  015E  108C               	bcf	12,1
   658                           
   659                           ;L210004 JCT.c: 360: LATA7 = 0;
   660  015F  138C               	bcf	12,7
   661                           
   662                           ;L210004 JCT.c: 361: LATA0 = 0;
   663  0160  100C               	bcf	12,0
   664  0161                     l5472:	
   665                           
   666                           ;L210004 JCT.c: 362: }
   667                           ;L210004 JCT.c: 363: }
   668                           ;L210004 JCT.c: 364: if(rc == 'A'){
   669  0161  0871               	movf	_rc,w
   670  0162  3A41               	xorlw	65
   671  0163  1D03               	skipz
   672  0164  2969               	goto	l5478
   673                           
   674                           ;L210004 JCT.c: 365: jct_massage_on();
   675  0165  2280  3180         	fcall	_jct_massage_on
   676                           
   677                           ;L210004 JCT.c: 366: m_flag = 1;
   678  0167  01C0               	clrf	_m_flag	;volatile
   679  0168  0AC0               	incf	_m_flag,f	;volatile
   680  0169                     l5478:	
   681                           
   682                           ;L210004 JCT.c: 369: }
   683                           ;L210004 JCT.c: 370: if(rc == 'B'){
   684  0169  0871               	movf	_rc,w
   685  016A  3A42               	xorlw	66
   686  016B  1D03               	skipz
   687  016C  2977               	goto	l5488
   688                           
   689                           ;L210004 JCT.c: 371: jct_massage_off();
   690  016D  2265  3180         	fcall	_jct_massage_off
   691                           
   692                           ;L210004 JCT.c: 372: jct_massage_reset();
   693  016F  2275  3180         	fcall	_jct_massage_reset
   694                           
   695                           ;L210004 JCT.c: 373: heat_en = 0;
   696  0171  01BA               	clrf	_heat_en	;volatile
   697                           
   698                           ;L210004 JCT.c: 374: LATA2 = 0;
   699  0172  0022               	movlb	2	; select bank2
   700  0173  110C               	bcf	12,2
   701                           
   702                           ;L210004 JCT.c: 375: vent_t = 1;
   703  0174  0020               	movlb	0	; select bank0
   704  0175  01C9               	clrf	_vent_t	;volatile
   705  0176  0AC9               	incf	_vent_t,f	;volatile
   706  0177                     l5488:	
   707                           
   708                           ;L210004 JCT.c: 376: }
   709                           ;L210004 JCT.c: 377: if(rc == 'C'){
   710  0177  0871               	movf	_rc,w
   711  0178  3A43               	xorlw	67
   712  0179  1D03               	skipz
   713  017A  2994               	goto	l5506
   714                           
   715                           ;L210004 JCT.c: 378: if(heat_en){
   716  017B  0020               	movlb	0	; select bank0
   717  017C  083A               	movf	_heat_en,w	;volatile
   718  017D  1903               	btfsc	3,2
   719  017E  2982               	goto	l5498
   720                           
   721                           ;L210004 JCT.c: 379: LATA2 = 0;
   722  017F  0022               	movlb	2	; select bank2
   723                           
   724                           ;L210004 JCT.c: 380: heat_en = 0;
   725                           
   726                           ;L210004 JCT.c: 381: heat_reset = 1;
   727  0180  2286  3180         	fcall	PL2	;call to abstracted procedure
   728  0182                     l5498:	
   729                           
   730                           ;L210004 JCT.c: 382: }
   731                           ;L210004 JCT.c: 383: if(last_rc[0] == 'D'){
   732  0182  0820               	movf	_last_rc,w
   733  0183  3A44               	xorlw	68
   734  0184  1D03               	skipz
   735  0185  2988               	goto	l1930
   736                           
   737                           ;L210004 JCT.c: 384: LATB3 = 0;
   738  0186  0022               	movlb	2	; select bank2
   739  0187  118D               	bcf	13,3
   740  0188                     l1930:	
   741                           
   742                           ;L210004 JCT.c: 385: }
   743                           ;L210004 JCT.c: 386: LATB1 = 0;
   744  0188  0022               	movlb	2	; select bank2
   745  0189  108D               	bcf	13,1
   746                           
   747                           ;L210004 JCT.c: 387: LATB2 = 0;
   748  018A  110D               	bcf	13,2
   749                           
   750                           ;L210004 JCT.c: 388: LATB3 = 0;
   751  018B  118D               	bcf	13,3
   752                           
   753                           ;L210004 JCT.c: 389: LATB4 = 1;
   754  018C  160D               	bsf	13,4
   755                           
   756                           ;L210004 JCT.c: 390: if(!m_flag){
   757  018D  0020               	movlb	0	; select bank0
   758  018E  08C0               	movf	_m_flag,f
   759  018F  1D03               	skipz
   760  0190  2994               	goto	l5506
   761                           
   762                           ;L210004 JCT.c: 391: LATA1 = 0;
   763  0191  0022               	movlb	2	; select bank2
   764  0192  108C               	bcf	12,1
   765                           
   766                           ;L210004 JCT.c: 392: LATA7 = 0;
   767  0193  138C               	bcf	12,7
   768  0194                     l5506:	
   769                           
   770                           ;L210004 JCT.c: 395: }
   771                           ;L210004 JCT.c: 396: }
   772                           ;L210004 JCT.c: 397: if(rc == 'D'){
   773  0194  0871               	movf	_rc,w
   774  0195  3A44               	xorlw	68
   775  0196  1D03               	skipz
   776  0197  29B1               	goto	l5524
   777                           
   778                           ;L210004 JCT.c: 398: if(heat_en){
   779  0198  0020               	movlb	0	; select bank0
   780  0199  083A               	movf	_heat_en,w	;volatile
   781  019A  1903               	btfsc	3,2
   782  019B  299F               	goto	l5516
   783                           
   784                           ;L210004 JCT.c: 399: LATA2 = 0;
   785  019C  0022               	movlb	2	; select bank2
   786                           
   787                           ;L210004 JCT.c: 400: heat_en = 0;
   788                           
   789                           ;L210004 JCT.c: 401: heat_reset = 1;
   790  019D  2286  3180         	fcall	PL2	;call to abstracted procedure
   791  019F                     l5516:	
   792                           
   793                           ;L210004 JCT.c: 402: }
   794                           ;L210004 JCT.c: 403: if(last_rc[0] == 'C'){
   795  019F  0820               	movf	_last_rc,w
   796  01A0  3A43               	xorlw	67
   797  01A1  1D03               	skipz
   798  01A2  29A5               	goto	l5520
   799                           
   800                           ;L210004 JCT.c: 404: LATB4 = 0;
   801  01A3  0022               	movlb	2	; select bank2
   802  01A4  120D               	bcf	13,4
   803  01A5                     l5520:	
   804                           
   805                           ;L210004 JCT.c: 405: }
   806                           ;L210004 JCT.c: 406: if(!m_flag){
   807  01A5  0020               	movlb	0	; select bank0
   808  01A6  08C0               	movf	_m_flag,f
   809  01A7  1D03               	skipz
   810  01A8  29AC               	goto	l1935
   811                           
   812                           ;L210004 JCT.c: 407: LATA1 = 0;
   813  01A9  0022               	movlb	2	; select bank2
   814  01AA  108C               	bcf	12,1
   815                           
   816                           ;L210004 JCT.c: 408: LATA7 = 0;
   817  01AB  138C               	bcf	12,7
   818  01AC                     l1935:	
   819                           
   820                           ;L210004 JCT.c: 410: }
   821                           ;L210004 JCT.c: 411: LATB1 = 0;
   822  01AC  0022               	movlb	2	; select bank2
   823  01AD  108D               	bcf	13,1
   824                           
   825                           ;L210004 JCT.c: 412: LATB4 = 0;
   826  01AE  120D               	bcf	13,4
   827                           
   828                           ;L210004 JCT.c: 413: LATB3 = 1;
   829  01AF  158D               	bsf	13,3
   830                           
   831                           ;L210004 JCT.c: 414: LATB2 = 1;
   832  01B0  150D               	bsf	13,2
   833  01B1                     l5524:	
   834                           
   835                           ;L210004 JCT.c: 415: }
   836                           ;L210004 JCT.c: 416: if(rc == 'E'){
   837  01B1  0871               	movf	_rc,w
   838  01B2  3A45               	xorlw	69
   839  01B3  1D03               	skipz
   840  01B4  29BE               	goto	l5534
   841                           
   842                           ;L210004 JCT.c: 417: LATB4 = 0;
   843  01B5  0022               	movlb	2	; select bank2
   844                           
   845                           ;L210004 JCT.c: 418: LATB3 = 0;
   846                           
   847                           ;L210004 JCT.c: 419: LATB1 = 0;
   848                           
   849                           ;L210004 JCT.c: 420: LATB2 = 0;
   850                           
   851                           ;L210004 JCT.c: 421: if(heat_reset){
   852  01B6  2298  3180         	fcall	PL5	;call to abstracted procedure
   853  01B8  083B               	movf	_heat_reset,w	;volatile
   854  01B9  1903               	btfsc	3,2
   855  01BA  29BE               	goto	l5534
   856                           
   857                           ;L210004 JCT.c: 422: LATA2 = 1;
   858  01BB  0022               	movlb	2	; select bank2
   859                           
   860                           ;L210004 JCT.c: 423: heat_en = 1;
   861                           
   862                           ;L210004 JCT.c: 424: heat_reset = 0;
   863  01BC  2292  3180         	fcall	PL4	;call to abstracted procedure
   864  01BE                     l5534:	
   865                           
   866                           ;L210004 JCT.c: 425: }
   867                           ;L210004 JCT.c: 426: }
   868                           ;L210004 JCT.c: 427: if(rc == 'F'){
   869  01BE  0871               	movf	_rc,w
   870  01BF  3A46               	xorlw	70
   871  01C0  1D03               	skipz
   872  01C1  29DB               	goto	l5552
   873                           
   874                           ;L210004 JCT.c: 428: if(heat_en){
   875  01C2  0020               	movlb	0	; select bank0
   876  01C3  083A               	movf	_heat_en,w	;volatile
   877  01C4  1903               	btfsc	3,2
   878  01C5  29C9               	goto	l5544
   879                           
   880                           ;L210004 JCT.c: 429: LATA2 = 0;
   881  01C6  0022               	movlb	2	; select bank2
   882                           
   883                           ;L210004 JCT.c: 430: heat_en = 0;
   884                           
   885                           ;L210004 JCT.c: 431: heat_reset = 1;
   886  01C7  2286  3180         	fcall	PL2	;call to abstracted procedure
   887  01C9                     l5544:	
   888                           
   889                           ;L210004 JCT.c: 432: }
   890                           ;L210004 JCT.c: 433: if(last_rc[0] == 'G'){
   891  01C9  0820               	movf	_last_rc,w
   892  01CA  3A47               	xorlw	71
   893  01CB  1D03               	skipz
   894  01CC  29CF               	goto	l5548
   895                           
   896                           ;L210004 JCT.c: 434: LATB2 = 0;
   897  01CD  0022               	movlb	2	; select bank2
   898  01CE  110D               	bcf	13,2
   899  01CF                     l5548:	
   900                           
   901                           ;L210004 JCT.c: 435: }
   902                           ;L210004 JCT.c: 436: if(!m_flag){
   903  01CF  0020               	movlb	0	; select bank0
   904  01D0  08C0               	movf	_m_flag,f
   905  01D1  1D03               	skipz
   906  01D2  29D6               	goto	l1941
   907                           
   908                           ;L210004 JCT.c: 437: LATA1 = 0;
   909  01D3  0022               	movlb	2	; select bank2
   910  01D4  108C               	bcf	12,1
   911                           
   912                           ;L210004 JCT.c: 438: LATA7 = 0;
   913  01D5  138C               	bcf	12,7
   914  01D6                     l1941:	
   915                           
   916                           ;L210004 JCT.c: 440: }
   917                           ;L210004 JCT.c: 441: LATB1 = 1;
   918  01D6  0022               	movlb	2	; select bank2
   919  01D7  148D               	bsf	13,1
   920                           
   921                           ;L210004 JCT.c: 442: LATB4 = 0;
   922  01D8  120D               	bcf	13,4
   923                           
   924                           ;L210004 JCT.c: 443: LATB2 = 0;
   925  01D9  110D               	bcf	13,2
   926                           
   927                           ;L210004 JCT.c: 444: LATB3 = 0;
   928  01DA  118D               	bcf	13,3
   929  01DB                     l5552:	
   930                           
   931                           ;L210004 JCT.c: 445: }
   932                           ;L210004 JCT.c: 446: if(rc == 'G'){
   933  01DB  0871               	movf	_rc,w
   934  01DC  3A47               	xorlw	71
   935  01DD  1D03               	skipz
   936  01DE  29F8               	goto	l5570
   937                           
   938                           ;L210004 JCT.c: 447: if(heat_en){
   939  01DF  0020               	movlb	0	; select bank0
   940  01E0  083A               	movf	_heat_en,w	;volatile
   941  01E1  1903               	btfsc	3,2
   942  01E2  29E6               	goto	l5562
   943                           
   944                           ;L210004 JCT.c: 448: LATA2 = 0;
   945  01E3  0022               	movlb	2	; select bank2
   946                           
   947                           ;L210004 JCT.c: 449: heat_en = 0;
   948                           
   949                           ;L210004 JCT.c: 450: heat_reset = 1;
   950  01E4  2286  3180         	fcall	PL2	;call to abstracted procedure
   951  01E6                     l5562:	
   952                           
   953                           ;L210004 JCT.c: 451: }
   954                           ;L210004 JCT.c: 452: if(last_rc[0] == 'F'){
   955  01E6  0820               	movf	_last_rc,w
   956  01E7  3A46               	xorlw	70
   957  01E8  1D03               	skipz
   958  01E9  29EC               	goto	l5566
   959                           
   960                           ;L210004 JCT.c: 453: LATB1 = 0;
   961  01EA  0022               	movlb	2	; select bank2
   962  01EB  108D               	bcf	13,1
   963  01EC                     l5566:	
   964                           
   965                           ;L210004 JCT.c: 454: }
   966                           ;L210004 JCT.c: 455: if(!m_flag){
   967  01EC  0020               	movlb	0	; select bank0
   968  01ED  08C0               	movf	_m_flag,f
   969  01EE  1D03               	skipz
   970  01EF  29F3               	goto	l1945
   971                           
   972                           ;L210004 JCT.c: 456: LATA1 = 0;
   973  01F0  0022               	movlb	2	; select bank2
   974  01F1  108C               	bcf	12,1
   975                           
   976                           ;L210004 JCT.c: 457: LATA7 = 0;
   977  01F2  138C               	bcf	12,7
   978  01F3                     l1945:	
   979                           
   980                           ;L210004 JCT.c: 459: }
   981                           ;L210004 JCT.c: 460: LATB1 = 0;
   982  01F3  0022               	movlb	2	; select bank2
   983  01F4  108D               	bcf	13,1
   984                           
   985                           ;L210004 JCT.c: 461: LATB4 = 0;
   986  01F5  120D               	bcf	13,4
   987                           
   988                           ;L210004 JCT.c: 462: LATB2 = 1;
   989  01F6  150D               	bsf	13,2
   990                           
   991                           ;L210004 JCT.c: 463: LATB3 = 0;
   992  01F7  118D               	bcf	13,3
   993  01F8                     l5570:	
   994                           
   995                           ;L210004 JCT.c: 464: }
   996                           ;L210004 JCT.c: 465: if(rc == 'H'){
   997  01F8  0871               	movf	_rc,w
   998  01F9  3A48               	xorlw	72
   999  01FA  1D03               	skipz
  1000  01FB  2A06               	goto	l5580
  1001                           
  1002                           ;L210004 JCT.c: 466: LATB1 = 0;
  1003  01FC  0022               	movlb	2	; select bank2
  1004  01FD  108D               	bcf	13,1
  1005                           
  1006                           ;L210004 JCT.c: 467: LATB2 = 0;
  1007  01FE  110D               	bcf	13,2
  1008                           
  1009                           ;L210004 JCT.c: 468: if(heat_reset){
  1010  01FF  0020               	movlb	0	; select bank0
  1011  0200  083B               	movf	_heat_reset,w	;volatile
  1012  0201  1903               	btfsc	3,2
  1013  0202  2A06               	goto	l5580
  1014                           
  1015                           ;L210004 JCT.c: 469: LATA2 = 1;
  1016  0203  0022               	movlb	2	; select bank2
  1017                           
  1018                           ;L210004 JCT.c: 470: heat_en = 1;
  1019                           
  1020                           ;L210004 JCT.c: 471: heat_reset = 0;
  1021  0204  2292  3180         	fcall	PL4	;call to abstracted procedure
  1022  0206                     l5580:	
  1023                           
  1024                           ;L210004 JCT.c: 472: }
  1025                           ;L210004 JCT.c: 473: }
  1026                           ;L210004 JCT.c: 474: if(rc == 'I'){
  1027  0206  0871               	movf	_rc,w
  1028  0207  3A49               	xorlw	73
  1029  0208  1D03               	skipz
  1030  0209  2A1F               	goto	l5610
  1031                           
  1032                           ;L210004 JCT.c: 475: if(last_rc[0] == 'J'){
  1033  020A  0020               	movlb	0	; select bank0
  1034  020B  0820               	movf	_last_rc,w
  1035  020C  3A4A               	xorlw	74
  1036  020D  1903               	btfsc	3,2
  1037  020E  2A1F               	goto	l5610
  1038                           
  1039                           ;L210004 JCT.c: 477: else{
  1040                           ;L210004 JCT.c: 478: jct_massage_off();
  1041  020F  2265  3180         	fcall	_jct_massage_off
  1042                           
  1043                           ;L210004 JCT.c: 479: jct_massage_reset();
  1044  0211  2275  3180         	fcall	_jct_massage_reset
  1045                           
  1046                           ;L210004 JCT.c: 481: LATB1 = 0;
  1047                           
  1048                           ;L210004 JCT.c: 482: LATB4 = 0;
  1049                           
  1050                           ;L210004 JCT.c: 483: LATB2 = 0;
  1051                           
  1052                           ;L210004 JCT.c: 484: LATB3 = 0;
  1053  0213  228C  3180         	fcall	PL3	;call to abstracted procedure
  1054                           
  1055                           ;L210004 JCT.c: 485: LATA7 = 1;
  1056  0215  178C               	bsf	12,7
  1057                           
  1058                           ;L210004 JCT.c: 486: LATA5 = 0;
  1059  0216  128C               	bcf	12,5
  1060                           
  1061                           ;L210004 JCT.c: 487: LATA1 = 1;
  1062  0217  148C               	bsf	12,1
  1063                           
  1064                           ;L210004 JCT.c: 488: if(heat_en){
  1065  0218  0020               	movlb	0	; select bank0
  1066  0219  083A               	movf	_heat_en,w	;volatile
  1067  021A  1903               	btfsc	3,2
  1068  021B  2A1F               	goto	l5610
  1069                           
  1070                           ;L210004 JCT.c: 489: LATA2 = 0;
  1071  021C  0022               	movlb	2	; select bank2
  1072                           
  1073                           ;L210004 JCT.c: 490: heat_en = 0;
  1074                           
  1075                           ;L210004 JCT.c: 491: heat_reset = 1;
  1076  021D  2286  3180         	fcall	PL2	;call to abstracted procedure
  1077  021F                     l5610:	
  1078                           
  1079                           ;L210004 JCT.c: 492: }
  1080                           ;L210004 JCT.c: 493: }
  1081                           ;L210004 JCT.c: 494: }
  1082                           ;L210004 JCT.c: 495: if(rc == 'J'){
  1083  021F  0871               	movf	_rc,w
  1084  0220  3A4A               	xorlw	74
  1085  0221  1D03               	skipz
  1086  0222  2A38               	goto	l5640
  1087                           
  1088                           ;L210004 JCT.c: 496: if(last_rc[0] == 'I'){
  1089  0223  0020               	movlb	0	; select bank0
  1090  0224  0820               	movf	_last_rc,w
  1091  0225  3A49               	xorlw	73
  1092  0226  1903               	btfsc	3,2
  1093  0227  2A38               	goto	l5640
  1094                           
  1095                           ;L210004 JCT.c: 498: else{
  1096                           ;L210004 JCT.c: 499: jct_massage_off();
  1097  0228  2265  3180         	fcall	_jct_massage_off
  1098                           
  1099                           ;L210004 JCT.c: 500: jct_massage_reset();
  1100  022A  2275  3180         	fcall	_jct_massage_reset
  1101                           
  1102                           ;L210004 JCT.c: 502: LATB1 = 0;
  1103                           
  1104                           ;L210004 JCT.c: 503: LATB4 = 0;
  1105                           
  1106                           ;L210004 JCT.c: 504: LATB2 = 0;
  1107                           
  1108                           ;L210004 JCT.c: 505: LATB3 = 0;
  1109  022C  228C  3180         	fcall	PL3	;call to abstracted procedure
  1110                           
  1111                           ;L210004 JCT.c: 506: LATA7 = 0;
  1112  022E  138C               	bcf	12,7
  1113                           
  1114                           ;L210004 JCT.c: 507: LATA5 = 1;
  1115  022F  168C               	bsf	12,5
  1116                           
  1117                           ;L210004 JCT.c: 508: LATA1 = 0;
  1118  0230  108C               	bcf	12,1
  1119                           
  1120                           ;L210004 JCT.c: 509: if(heat_en){
  1121  0231  0020               	movlb	0	; select bank0
  1122  0232  083A               	movf	_heat_en,w	;volatile
  1123  0233  1903               	btfsc	3,2
  1124  0234  2A38               	goto	l5640
  1125                           
  1126                           ;L210004 JCT.c: 510: LATA2 = 0;
  1127  0235  0022               	movlb	2	; select bank2
  1128                           
  1129                           ;L210004 JCT.c: 511: heat_en = 0;
  1130                           
  1131                           ;L210004 JCT.c: 512: heat_reset = 1;
  1132  0236  2286  3180         	fcall	PL2	;call to abstracted procedure
  1133  0238                     l5640:	
  1134                           
  1135                           ;L210004 JCT.c: 513: }
  1136                           ;L210004 JCT.c: 514: }
  1137                           ;L210004 JCT.c: 515: }
  1138                           ;L210004 JCT.c: 516: if(rc == 'K'){
  1139  0238  0871               	movf	_rc,w
  1140  0239  3A4B               	xorlw	75
  1141  023A  1D03               	skipz
  1142  023B  2A4B               	goto	l5666
  1143                           
  1144                           ;L210004 JCT.c: 517: GIE = 1;
  1145  023C  178B               	bsf	11,7
  1146                           
  1147                           ;L210004 JCT.c: 518: power = 0;
  1148  023D  0020               	movlb	0	; select bank0
  1149  023E  01C2               	clrf	_power	;volatile
  1150                           
  1151                           ;L210004 JCT.c: 519: LATB1 = 0;
  1152                           
  1153                           ;L210004 JCT.c: 520: LATB4 = 0;
  1154                           
  1155                           ;L210004 JCT.c: 521: LATB2 = 0;
  1156                           
  1157                           ;L210004 JCT.c: 522: LATB3 = 0;
  1158  023F  228C  3180         	fcall	PL3	;call to abstracted procedure
  1159                           
  1160                           ;L210004 JCT.c: 523: LATA1 = 0;
  1161  0241  108C               	bcf	12,1
  1162                           
  1163                           ;L210004 JCT.c: 524: LATA7 = 0;
  1164  0242  138C               	bcf	12,7
  1165                           
  1166                           ;L210004 JCT.c: 525: LATA5 = 0;
  1167  0243  128C               	bcf	12,5
  1168                           
  1169                           ;L210004 JCT.c: 526: if(heat_reset){
  1170  0244  0020               	movlb	0	; select bank0
  1171  0245  083B               	movf	_heat_reset,w	;volatile
  1172  0246  1903               	btfsc	3,2
  1173  0247  2A4B               	goto	l5666
  1174                           
  1175                           ;L210004 JCT.c: 527: LATA2 = 1;
  1176  0248  0022               	movlb	2	; select bank2
  1177                           
  1178                           ;L210004 JCT.c: 528: heat_en = 1;
  1179                           
  1180                           ;L210004 JCT.c: 529: heat_reset = 0;
  1181  0249  2292  3180         	fcall	PL4	;call to abstracted procedure
  1182  024B                     l5666:	
  1183                           
  1184                           ;L210004 JCT.c: 530: }
  1185                           ;L210004 JCT.c: 531: }
  1186                           ;L210004 JCT.c: 534: if(rc == 'W'){
  1187  024B  0871               	movf	_rc,w
  1188  024C  3A57               	xorlw	87
  1189  024D  1D03               	skipz
  1190  024E  2A56               	goto	l1958
  1191                           
  1192                           ;L210004 JCT.c: 535: heat_en = 1;
  1193  024F  0020               	movlb	0	; select bank0
  1194  0250  01BA               	clrf	_heat_en	;volatile
  1195  0251  0ABA               	incf	_heat_en,f	;volatile
  1196                           
  1197                           ;L210004 JCT.c: 536: heat_timeout = 20*60*29.5;
  1198  0252  3048               	movlw	72
  1199  0253  00B0               	movwf	_heat_timeout	;volatile
  1200  0254  308A               	movlw	138
  1201  0255  00B1               	movwf	_heat_timeout+1	;volatile
  1202  0256                     l1958:	
  1203                           
  1204                           ;L210004 JCT.c: 537: }
  1205                           ;L210004 JCT.c: 538: if(rc == 'X'){
  1206  0256  0871               	movf	_rc,w
  1207  0257  3A58               	xorlw	88
  1208  0258  1D03               	skipz
  1209  0259  28C7               	goto	l5358
  1210                           
  1211                           ;L210004 JCT.c: 539: heat_en = 0;
  1212  025A  0020               	movlb	0	; select bank0
  1213  025B  01BA               	clrf	_heat_en	;volatile
  1214                           
  1215                           ;L210004 JCT.c: 540: LATA2 = 0;
  1216  025C  0022               	movlb	2	; select bank2
  1217  025D  110C               	bcf	12,2
  1218  025E  28C7               	goto	l5358
  1219  025F                     __end_of_main:	
  1220  025F                     __ptext330:	
  1221 ;; =============== function _jct_massage_on ends ============
  1222                           
  1223                           
  1224 ;; *************** function _getch *****************
  1225 ;; Defined at:
  1226 ;;		line 93 in file "L210004 JCT.c"
  1227 ;; Parameters:    Size  Location     Type
  1228 ;;		None
  1229 ;; Auto vars:     Size  Location     Type
  1230 ;;		None
  1231 ;; Return value:  Size  Location     Type
  1232 ;;                  1    wreg      unsigned char 
  1233 ;; Registers used:
  1234 ;;		wreg
  1235 ;; Tracked objects:
  1236 ;;		On entry : 1C/0
  1237 ;;		On exit  : 1F/3
  1238 ;;		Unchanged: FFFE0/0
  1239 ;; Data sizes:     COMMON   BANK0   BANK1   BANK2
  1240 ;;      Params:         0       0       0       0
  1241 ;;      Locals:         0       0       0       0
  1242 ;;      Temps:          0       0       0       0
  1243 ;;      Totals:         0       0       0       0
  1244 ;;Total ram usage:        0 bytes
  1245 ;; Hardware stack levels used:    1
  1246 ;; Hardware stack levels required when called:    3
  1247 ;; This function calls:
  1248 ;;		Nothing
  1249 ;; This function is called by:
  1250 ;;		_main
  1251 ;; This function uses a non-reentrant model
  1252 ;;
  1253  025F                     _getch:	
  1254  025F                     l1891:	
  1255                           ;L210004 JCT.c: 96: while(!RCIF){
  1256                           
  1257                           ; Regs used in _getch: [wreg]
  1258                           
  1259  025F  0020               	movlb	0	; select bank0
  1260  0260  1E91               	btfss	17,5
  1261  0261  2A5F               	goto	l1891
  1262                           
  1263                           ;L210004 JCT.c: 104: }
  1264                           ;L210004 JCT.c: 105: return RCREG;
  1265  0262  0023               	movlb	3	; select bank3
  1266  0263  0819               	movf	25,w	;volatile
  1267  0264  0008               	return
  1268  0265                     __end_of_getch:	
  1269  0265                     __ptext328:	
  1270 ;; =============== function _jct_massage_reset ends ============
  1271                           
  1272                           
  1273 ;; *************** function _jct_massage_off *****************
  1274 ;; Defined at:
  1275 ;;		line 801 in file "L210004 JCT.c"
  1276 ;; Parameters:    Size  Location     Type
  1277 ;;		None
  1278 ;; Auto vars:     Size  Location     Type
  1279 ;;		None
  1280 ;; Return value:  Size  Location     Type
  1281 ;;		None               void
  1282 ;; Registers used:
  1283 ;;		wreg, status,2
  1284 ;; Tracked objects:
  1285 ;;		On entry : 1C/3
  1286 ;;		On exit  : 1F/0
  1287 ;;		Unchanged: FFFE0/0
  1288 ;; Data sizes:     COMMON   BANK0   BANK1   BANK2
  1289 ;;      Params:         0       0       0       0
  1290 ;;      Locals:         0       0       0       0
  1291 ;;      Temps:          0       0       0       0
  1292 ;;      Totals:         0       0       0       0
  1293 ;;Total ram usage:        0 bytes
  1294 ;; Hardware stack levels used:    1
  1295 ;; Hardware stack levels required when called:    3
  1296 ;; This function calls:
  1297 ;;		Nothing
  1298 ;; This function is called by:
  1299 ;;		_main
  1300 ;; This function uses a non-reentrant model
  1301 ;;
  1302  0265                     _jct_massage_off:	
  1303                           
  1304                           ;L210004 JCT.c: 802: power = 0;
  1305                           
  1306                           ; Regs used in _jct_massage_off: [wreg+status,2]
  1307  0265  0020               	movlb	0	; select bank0
  1308  0266  01C2               	clrf	_power	;volatile
  1309                           
  1310                           ;L210004 JCT.c: 803: m_flag = 0;
  1311  0267  01C0               	clrf	_m_flag	;volatile
  1312                           
  1313                           ;L210004 JCT.c: 804: LATA1 = 0;
  1314  0268  0022               	movlb	2	; select bank2
  1315  0269  108C               	bcf	12,1
  1316                           
  1317                           ;L210004 JCT.c: 805: LATA0 = 0;
  1318  026A  100C               	bcf	12,0
  1319                           
  1320                           ;L210004 JCT.c: 806: LATA7 = 0;
  1321  026B  138C               	bcf	12,7
  1322                           
  1323                           ;L210004 JCT.c: 807: LATA0 = 0;
  1324  026C  100C               	bcf	12,0
  1325                           
  1326                           ;L210004 JCT.c: 808: LATA5 = 0;
  1327  026D  128C               	bcf	12,5
  1328                           
  1329                           ;L210004 JCT.c: 809: LATA4 = 0;
  1330  026E  120C               	bcf	12,4
  1331                           
  1332                           ;L210004 JCT.c: 810: LATA3 = 0;
  1333  026F  118C               	bcf	12,3
  1334                           
  1335                           ;L210004 JCT.c: 811: massageCycleTimer = 0;
  1336  0270  01F0               	clrf	_massageCycleTimer	;volatile
  1337                           
  1338                           ;L210004 JCT.c: 812: massageSecTimer = 40;
  1339  0271  3028               	movlw	40
  1340  0272  0020               	movlb	0	; select bank0
  1341  0273  00D8               	movwf	_massageSecTimer	;volatile
  1342  0274  0008               	return
  1343  0275                     __end_of_jct_massage_off:	
  1344  0275                     __ptext327:	
  1345 ;; =============== function _main ends ============
  1346                           
  1347                           
  1348 ;; *************** function _jct_massage_reset *****************
  1349 ;; Defined at:
  1350 ;;		line 815 in file "L210004 JCT.c"
  1351 ;; Parameters:    Size  Location     Type
  1352 ;;		None
  1353 ;; Auto vars:     Size  Location     Type
  1354 ;;		None
  1355 ;; Return value:  Size  Location     Type
  1356 ;;		None               void
  1357 ;; Registers used:
  1358 ;;		wreg, status,2
  1359 ;; Tracked objects:
  1360 ;;		On entry : 1F/0
  1361 ;;		On exit  : 1F/0
  1362 ;;		Unchanged: FFFE0/0
  1363 ;; Data sizes:     COMMON   BANK0   BANK1   BANK2
  1364 ;;      Params:         0       0       0       0
  1365 ;;      Locals:         0       0       0       0
  1366 ;;      Temps:          0       0       0       0
  1367 ;;      Totals:         0       0       0       0
  1368 ;;Total ram usage:        0 bytes
  1369 ;; Hardware stack levels used:    1
  1370 ;; Hardware stack levels required when called:    3
  1371 ;; This function calls:
  1372 ;;		Nothing
  1373 ;; This function is called by:
  1374 ;;		_main
  1375 ;; This function uses a non-reentrant model
  1376 ;;
  1377  0275                     _jct_massage_reset:	
  1378                           
  1379                           ;L210004 JCT.c: 816: massageCycleTimer = 0;
  1380                           
  1381                           ; Regs used in _jct_massage_reset: [wreg+status,2]
  1382  0275  01F0               	clrf	_massageCycleTimer	;volatile
  1383                           
  1384                           ;L210004 JCT.c: 817: massageSecTimer = 40;
  1385  0276  3028               	movlw	40
  1386  0277  00D8               	movwf	_massageSecTimer	;volatile
  1387  0278  0008               	return
  1388  0279                     __end_of_jct_massage_reset:	
  1389  0279                     __ptext331:	
  1390 ;; =============== function _getch ends ============
  1391                           
  1392                           
  1393 ;; *************** function _putch *****************
  1394 ;; Defined at:
  1395 ;;		line 77 in file "L210004 JCT.c"
  1396 ;; Parameters:    Size  Location     Type
  1397 ;;  byte            1    wreg     unsigned char 
  1398 ;; Auto vars:     Size  Location     Type
  1399 ;;  byte            1    1[COMMON] unsigned char 
  1400 ;; Return value:  Size  Location     Type
  1401 ;;		None               void
  1402 ;; Registers used:
  1403 ;;		wreg
  1404 ;; Tracked objects:
  1405 ;;		On entry : 1F/0
  1406 ;;		On exit  : 1F/3
  1407 ;;		Unchanged: FFFE0/0
  1408 ;; Data sizes:     COMMON   BANK0   BANK1   BANK2
  1409 ;;      Params:         0       0       0       0
  1410 ;;      Locals:         1       0       0       0
  1411 ;;      Temps:          0       0       0       0
  1412 ;;      Totals:         1       0       0       0
  1413 ;;Total ram usage:        1 bytes
  1414 ;; Hardware stack levels used:    1
  1415 ;; Hardware stack levels required when called:    3
  1416 ;; This function calls:
  1417 ;;		Nothing
  1418 ;; This function is called by:
  1419 ;;		_main
  1420 ;; This function uses a non-reentrant model
  1421 ;;
  1422  0279                     _putch:	
  1423                           
  1424                           ; Regs used in _putch: [wreg]
  1425                           ;putch@byte stored from wreg
  1426  0279  00F3               	movwf	putch@byte
  1427  027A                     l1885:	
  1428                           ;L210004 JCT.c: 80: while(!TXIF){
  1429                           
  1430  027A  1E11               	btfss	17,4
  1431  027B  2A7A               	goto	l1885
  1432                           
  1433                           ;L210004 JCT.c: 88: }
  1434                           ;L210004 JCT.c: 89: TXREG = byte;
  1435  027C  0873               	movf	putch@byte,w
  1436  027D  0023               	movlb	3	; select bank3
  1437  027E  009A               	movwf	26	;volatile
  1438  027F  0008               	return
  1439  0280                     __end_of_putch:	
  1440  0280                     __ptext329:	
  1441 ;; =============== function _jct_massage_off ends ============
  1442                           
  1443                           
  1444 ;; *************** function _jct_massage_on *****************
  1445 ;; Defined at:
  1446 ;;		line 796 in file "L210004 JCT.c"
  1447 ;; Parameters:    Size  Location     Type
  1448 ;;		None
  1449 ;; Auto vars:     Size  Location     Type
  1450 ;;		None
  1451 ;; Return value:  Size  Location     Type
  1452 ;;		None               void
  1453 ;; Registers used:
  1454 ;;		None
  1455 ;; Tracked objects:
  1456 ;;		On entry : 1C/3
  1457 ;;		On exit  : 1F/0
  1458 ;;		Unchanged: FFFE0/0
  1459 ;; Data sizes:     COMMON   BANK0   BANK1   BANK2
  1460 ;;      Params:         0       0       0       0
  1461 ;;      Locals:         0       0       0       0
  1462 ;;      Temps:          0       0       0       0
  1463 ;;      Totals:         0       0       0       0
  1464 ;;Total ram usage:        0 bytes
  1465 ;; Hardware stack levels used:    1
  1466 ;; Hardware stack levels required when called:    3
  1467 ;; This function calls:
  1468 ;;		Nothing
  1469 ;; This function is called by:
  1470 ;;		_main
  1471 ;; This function uses a non-reentrant model
  1472 ;;
  1473  0280                     _jct_massage_on:	
  1474                           
  1475                           ;L210004 JCT.c: 797: power = 1;
  1476                           
  1477                           ; Regs used in _jct_massage_on: []
  1478  0280  0020               	movlb	0	; select bank0
  1479  0281  01C2               	clrf	_power	;volatile
  1480  0282  0AC2               	incf	_power,f	;volatile
  1481                           
  1482                           ;L210004 JCT.c: 798: m_flag = 1;
  1483  0283  01C0               	clrf	_m_flag	;volatile
  1484  0284  0AC0               	incf	_m_flag,f	;volatile
  1485  0285  0008               	return
  1486  0286                     __end_of_jct_massage_on:	
  1487  0286                     PL2:	
  1488  0286  110C               	bcf	12,2
  1489  0287  0020               	movlb	0	; select bank0
  1490  0288  01BA               	clrf	_heat_en	;volatile
  1491  0289  01BB               	clrf	_heat_reset	;volatile
  1492  028A  0ABB               	incf	_heat_reset,f	;volatile
  1493  028B  0008               	return
  1494  028C                     PL3:	
  1495  028C  0022               	movlb	2	; select bank2
  1496  028D  108D               	bcf	13,1
  1497  028E  120D               	bcf	13,4
  1498  028F  110D               	bcf	13,2
  1499  0290  118D               	bcf	13,3
  1500  0291  0008               	return
  1501  0292                     PL4:	
  1502  0292  150C               	bsf	12,2
  1503  0293  0020               	movlb	0	; select bank0
  1504  0294  01BA               	clrf	_heat_en	;volatile
  1505  0295  0ABA               	incf	_heat_en,f	;volatile
  1506  0296  01BB               	clrf	_heat_reset	;volatile
  1507  0297  0008               	return
  1508  0298                     PL5:	
  1509  0298  120D               	bcf	13,4
  1510  0299  118D               	bcf	13,3
  1511  029A  108D               	bcf	13,1
  1512  029B  110D               	bcf	13,2
  1513  029C  0020               	movlb	0	; select bank0
  1514  029D  0008               	return
  1515                           
  1516                           	psect	bssCOMMON
  1517  0070                     __pbssCOMMON:	
  1518  0070                     _massageCycleTimer:	
  1519  0070                     	ds	1
  1520  0071                     _rc:	
  1521  0071                     	ds	1
  1522                           
  1523                           	psect	bssBANK0
  1524  0020                     __pbssBANK0:	
  1525  0020                     _last_rc:	
  1526  0020                     	ds	5
  1527  0025                     _tx_char:	
  1528  0025                     	ds	5
  1529  002A                     _TimerReload:	
  1530  002A                     	ds	2
  1531  002C                     _a_count:	
  1532  002C                     	ds	2
  1533  002E                     _comm_timeout:	
  1534  002E                     	ds	2
  1535  0030                     _heat_timeout:	
  1536  0030                     	ds	2
  1537  0032                     _p_count:	
  1538  0032                     	ds	2
  1539  0034                     _pwm_count:	
  1540  0034                     	ds	2
  1541  0036                     _w_count:	
  1542  0036                     	ds	2
  1543  0038                     _z_count:	
  1544  0038                     	ds	2
  1545  003A                     _heat_en:	
  1546  003A                     	ds	1
  1547  003B                     _heat_reset:	
  1548  003B                     	ds	1
  1549  003C                     _hrClose:	
  1550  003C                     	ds	1
  1551  003D                     _hrCloseDelay:	
  1552  003D                     	ds	1
  1553  003E                     _hrOpen:	
  1554  003E                     	ds	1
  1555  003F                     _hrOpenDelay:	
  1556  003F                     	ds	1
  1557  0040                     _m_flag:	
  1558  0040                     	ds	1
  1559  0041                     _massageCycles:	
  1560  0041                     	ds	1
  1561  0042                     _power:	
  1562  0042                     	ds	1
  1563  0043                     _prClose:	
  1564  0043                     	ds	1
  1565  0044                     _prCloseDelay:	
  1566  0044                     	ds	1
  1567  0045                     _prOpen:	
  1568  0045                     	ds	1
  1569  0046                     _prOpenDelay:	
  1570  0046                     	ds	1
  1571  0047                     _rc_error:	
  1572  0047                     	ds	1
  1573  0048                     _timer:	
  1574  0048                     	ds	1
  1575  0049                     _vent_t:	
  1576  0049                     	ds	1
  1577                           
  1578                           	psect	dataBANK0
  1579  0054                     __pdataBANK0:	
  1580  0054                     _time_out:	
  1581  0054                     	ds	2
  1582  0056                     _vent_c:	
  1583  0056                     	ds	2
  1584  0058                     _massageSecTimer:	
  1585  0058                     	ds	1
  1586  0059                     _pulsePhase:	
  1587  0059                     	ds	1
  1588                           
  1589                           	psect	clrtext
  1590  037D                     clear_ram:	
  1591                           ;	Called with FSR0 containing the base address, and
  1592                           ;	WREG with the size to clear
  1593                           
  1594  037D  0064               	clrwdt	;clear the watchdog before getting into this loop
  1595  037E                     clrloop:	
  1596  037E  0180               	clrf	0	;clear RAM location pointed to by FSR
  1597  037F  3101               	addfsr 0,1
  1598  0380  0B89               	decfsz	9,f	;Have we reached the end of clearing yet?
  1599  0381  2B7E               	goto	clrloop	;have we reached the end yet?
  1600  0382  3400               	retlw	0	;all done for this memory range, return
  1601                           
  1602                           	psect	cstackCOMMON
  1603  0072                     __pcstackCOMMON:	
  1604  0072                     ?_jct_massage_on:	
  1605  0072                     ?_jct_massage_off:	
  1606                           ; 0 bytes @ 0x0
  1607                           
  1608  0072                     ?_jct_massage_reset:	
  1609                           ; 0 bytes @ 0x0
  1610                           
  1611  0072                     ?_massage:	
  1612                           ; 0 bytes @ 0x0
  1613                           
  1614  0072                     ??_massage:	
  1615                           ; 0 bytes @ 0x0
  1616                           
  1617  0072                     ?_putch:	
  1618                           ; 0 bytes @ 0x0
  1619                           
  1620  0072                     ?_main:	
  1621                           ; 0 bytes @ 0x0
  1622                           
  1623  0072                     ?_isr:	
  1624                           ; 0 bytes @ 0x0
  1625                           
  1626  0072                     ??_isr:	
  1627                           ; 0 bytes @ 0x0
  1628                           
  1629  0072                     ?i1_jct_massage_off:	
  1630                           ; 0 bytes @ 0x0
  1631                           
  1632  0072                     ??i1_jct_massage_off:	
  1633                           ; 0 bytes @ 0x0
  1634                           
  1635  0072                     ?i1_jct_massage_reset:	
  1636                           ; 0 bytes @ 0x0
  1637                           
  1638  0072                     ??i1_jct_massage_reset:	
  1639                           ; 0 bytes @ 0x0
  1640                           
  1641  0072                     ?_getch:	
  1642                           ; 0 bytes @ 0x0
  1643                           
  1644                           
  1645                           ; 1 bytes @ 0x0
  1646  0072                     	ds	1
  1647  0073                     ??_jct_massage_on:	
  1648  0073                     ??_jct_massage_off:	
  1649                           ; 0 bytes @ 0x1
  1650                           
  1651  0073                     ??_jct_massage_reset:	
  1652                           ; 0 bytes @ 0x1
  1653                           
  1654  0073                     ??_putch:	
  1655                           ; 0 bytes @ 0x1
  1656                           
  1657  0073                     ??_getch:	
  1658                           ; 0 bytes @ 0x1
  1659                           
  1660  0073                     putch@byte:	
  1661                           ; 0 bytes @ 0x1
  1662                           
  1663                           
  1664                           ; 1 bytes @ 0x1
  1665  0073                     	ds	1
  1666  0074                     ??_main:	
  1667                           
  1668                           	psect	cstackBANK0
  1669  004A                     __pcstackBANK0:	
  1670                           ; 0 bytes @ 0x2
  1671                           
  1672  004A                     main@echo:	
  1673                           
  1674                           ; 1 bytes @ 0x0
  1675  004A                     	ds	1
  1676  004B                     main@q:	
  1677                           
  1678                           ; 2 bytes @ 0x1
  1679  004B                     	ds	2
  1680  004D                     main@i:	
  1681                           
  1682                           ; 2 bytes @ 0x3
  1683  004D                     	ds	2
  1684  004F                     main@i_3028:	
  1685                           
  1686                           ; 2 bytes @ 0x5
  1687  004F                     	ds	2
  1688  0051                     main@c:	
  1689                           
  1690                           ; 1 bytes @ 0x7
  1691  0051                     	ds	1
  1692  0052                     main@i_3027:	
  1693                           
  1694                           ; 2 bytes @ 0x8
  1695  0052                     	ds	2
  1696                           
  1697                           	psect	intentry
  1698  0004                     __pintentry:	
  1699 ;; =============== function _putch ends ============
  1700                           
  1701                           
  1702 ;; *************** function _isr *****************
  1703 ;; Defined at:
  1704 ;;		line 545 in file "L210004 JCT.c"
  1705 ;; Parameters:    Size  Location     Type
  1706 ;;		None
  1707 ;; Auto vars:     Size  Location     Type
  1708 ;;		None
  1709 ;; Return value:  Size  Location     Type
  1710 ;;		None               void
  1711 ;; Registers used:
  1712 ;;		wreg, status,2, status,0, btemp+1, pclath, cstack
  1713 ;; Tracked objects:
  1714 ;;		On entry : 0/0
  1715 ;;		On exit  : 1F/0
  1716 ;;		Unchanged: FFE00/0
  1717 ;; Data sizes:     COMMON   BANK0   BANK1   BANK2
  1718 ;;      Params:         0       0       0       0
  1719 ;;      Locals:         0       0       0       0
  1720 ;;      Temps:          1       0       0       0
  1721 ;;      Totals:         1       0       0       0
  1722 ;;Total ram usage:        1 bytes
  1723 ;; Hardware stack levels used:    1
  1724 ;; Hardware stack levels required when called:    2
  1725 ;; This function calls:
  1726 ;;		i1_jct_massage_reset
  1727 ;;		_massage
  1728 ;; This function is called by:
  1729 ;;		Interrupt level 1
  1730 ;; This function uses a non-reentrant model
  1731 ;;
  1732  0004                     _isr:	
  1733                           
  1734                           ; Regs used in _isr: [wreg+status,2+status,0+btemp+1+pclath+cstack]
  1735  0004  3180               	pagesel	$
  1736  0005  0020               	movlb	0	; select bank0
  1737  0006  087F               	movf	127,w
  1738  0007  00F2               	movwf	??_isr
  1739                           
  1740                           ;L210004 JCT.c: 546: if(TMR0IF){
  1741  0008  1D0B               	btfss	11,2
  1742  0009  2880               	goto	i1l1982
  1743                           
  1744                           ;L210004 JCT.c: 547: time_out--;
  1745  000A  30FF               	movlw	-1
  1746  000B  07D4               	addwf	_time_out,f	;volatile
  1747  000C  1C03               	skipc
  1748  000D  03D5               	decf	_time_out+1,f	;volatile
  1749                           
  1750                           ;L210004 JCT.c: 548: if(!time_out){
  1751  000E  0855               	movf	_time_out+1,w	;volatile
  1752  000F  0454               	iorwf	_time_out,w	;volatile
  1753  0010  1D03               	skipz
  1754  0011  2844               	goto	i1l4766
  1755                           
  1756                           ;L210004 JCT.c: 549: time_out = 200;
  1757  0012  30C8               	movlw	200
  1758  0013  00D4               	movwf	_time_out	;volatile
  1759  0014  01D5               	clrf	_time_out+1	;volatile
  1760                           
  1761                           ;L210004 JCT.c: 550: if(heat_timeout){
  1762  0015  0831               	movf	_heat_timeout+1,w	;volatile
  1763  0016  0430               	iorwf	_heat_timeout,w	;volatile
  1764  0017  1903               	skipnz
  1765  0018  2823               	goto	i1l4752
  1766                           
  1767                           ;L210004 JCT.c: 551: heat_timeout--;
  1768  0019  30FF               	movlw	-1
  1769  001A  07B0               	addwf	_heat_timeout,f	;volatile
  1770  001B  1C03               	skipc
  1771  001C  03B1               	decf	_heat_timeout+1,f	;volatile
  1772                           
  1773                           ;L210004 JCT.c: 552: if(!heat_timeout){
  1774  001D  0831               	movf	_heat_timeout+1,w	;volatile
  1775  001E  0430               	iorwf	_heat_timeout,w	;volatile
  1776  001F  1D03               	skipz
  1777  0020  2823               	goto	i1l4752
  1778                           
  1779                           ;L210004 JCT.c: 553: heat_en = 0;
  1780  0021  01BA               	clrf	_heat_en	;volatile
  1781                           
  1782                           ;L210004 JCT.c: 554: timer = 0;
  1783  0022  01C8               	clrf	_timer	;volatile
  1784  0023                     i1l4752:	
  1785                           
  1786                           ;L210004 JCT.c: 555: }
  1787                           ;L210004 JCT.c: 556: }
  1788                           ;L210004 JCT.c: 557: if(vent_t){
  1789  0023  0849               	movf	_vent_t,w	;volatile
  1790  0024  1903               	btfsc	3,2
  1791  0025  2841               	goto	i1l4764
  1792                           
  1793                           ;L210004 JCT.c: 558: if(vent_c > 0){
  1794  0026  0857               	movf	_vent_c+1,w	;volatile
  1795  0027  3A80               	xorlw	128
  1796  0028  00FF               	movwf	127
  1797  0029  3080               	movlw	128
  1798  002A  027F               	subwf	127,w
  1799  002B  1D03               	skipz
  1800  002C  282F               	goto	u100_25
  1801  002D  3001               	movlw	1
  1802  002E  0256               	subwf	_vent_c,w	;volatile
  1803  002F                     u100_25:	
  1804  002F  1C03               	skipc
  1805  0030  2839               	goto	i1l1970
  1806                           
  1807                           ;L210004 JCT.c: 559: LATA0 = 1;
  1808  0031  0022               	movlb	2	; select bank2
  1809  0032  30FF               	movlw	-1
  1810  0033  140C               	bsf	12,0
  1811                           
  1812                           ;L210004 JCT.c: 560: --vent_c;
  1813  0034  0020               	movlb	0	; select bank0
  1814  0035  07D6               	addwf	_vent_c,f	;volatile
  1815  0036  1C03               	skipc
  1816  0037  03D7               	decf	_vent_c+1,f	;volatile
  1817                           
  1818                           ;L210004 JCT.c: 561: }
  1819  0038  2844               	goto	i1l4766
  1820  0039                     i1l1970:	
  1821                           
  1822                           ;L210004 JCT.c: 562: else{
  1823                           ;L210004 JCT.c: 563: LATA0 = 0;
  1824  0039  0022               	movlb	2	; select bank2
  1825  003A  30C8               	movlw	200
  1826  003B  100C               	bcf	12,0
  1827                           
  1828                           ;L210004 JCT.c: 564: vent_c = 200;
  1829  003C  0020               	movlb	0	; select bank0
  1830  003D  00D6               	movwf	_vent_c	;volatile
  1831  003E  01D7               	clrf	_vent_c+1	;volatile
  1832                           
  1833                           ;L210004 JCT.c: 565: vent_t = 0;
  1834  003F  01C9               	clrf	_vent_t	;volatile
  1835  0040  2844               	goto	i1l4766
  1836  0041                     i1l4764:	
  1837                           
  1838                           ;L210004 JCT.c: 568: else{
  1839                           ;L210004 JCT.c: 569: vent_c = 200;
  1840  0041  30C8               	movlw	200
  1841  0042  00D6               	movwf	_vent_c	;volatile
  1842  0043  01D7               	clrf	_vent_c+1	;volatile
  1843  0044                     i1l4766:	
  1844                           
  1845                           ;L210004 JCT.c: 570: }
  1846                           ;L210004 JCT.c: 571: }
  1847                           ;L210004 JCT.c: 573: pwm_count++;
  1848  0044  0AB4               	incf	_pwm_count,f	;volatile
  1849  0045  1903               	skipnz
  1850  0046  0AB5               	incf	_pwm_count+1,f	;volatile
  1851                           
  1852                           ;L210004 JCT.c: 574: if(pwm_count >= 100){
  1853  0047  0835               	movf	_pwm_count+1,w	;volatile
  1854  0048  3A80               	xorlw	128
  1855  0049  00FF               	movwf	127
  1856  004A  3080               	movlw	128
  1857  004B  027F               	subwf	127,w
  1858  004C  1D03               	skipz
  1859  004D  2850               	goto	u101_25
  1860  004E  3064               	movlw	100
  1861  004F  0234               	subwf	_pwm_count,w	;volatile
  1862  0050                     u101_25:	
  1863  0050  1C03               	skipc
  1864  0051  2855               	goto	i1l4772
  1865                           
  1866                           ;L210004 JCT.c: 575: pwm_count = 0;
  1867  0052  0020               	movlb	0	; select bank0
  1868  0053  01B4               	clrf	_pwm_count	;volatile
  1869  0054  01B5               	clrf	_pwm_count+1	;volatile
  1870  0055                     i1l4772:	
  1871                           
  1872                           ;L210004 JCT.c: 576: }
  1873                           ;L210004 JCT.c: 578: if(heat_en){
  1874  0055  0020               	movlb	0	; select bank0
  1875  0056  083A               	movf	_heat_en,w	;volatile
  1876  0057  1903               	btfsc	3,2
  1877  0058  2867               	goto	i1l1975
  1878                           
  1879                           ;L210004 JCT.c: 579: if(pwm_count < 70){
  1880  0059  0835               	movf	_pwm_count+1,w	;volatile
  1881  005A  3A80               	xorlw	128
  1882  005B  00FF               	movwf	127
  1883  005C  3080               	movlw	128
  1884  005D  027F               	subwf	127,w
  1885  005E  1D03               	skipz
  1886  005F  2862               	goto	u103_25
  1887  0060  3046               	movlw	70
  1888  0061  0234               	subwf	_pwm_count,w	;volatile
  1889  0062                     u103_25:	
  1890  0062  1803               	skipnc
  1891  0063  2867               	goto	i1l1975
  1892                           
  1893                           ;L210004 JCT.c: 580: LATA2 = 1;
  1894  0064  0022               	movlb	2	; select bank2
  1895  0065  150C               	bsf	12,2
  1896                           
  1897                           ;L210004 JCT.c: 581: }
  1898  0066  2869               	goto	i1l4778
  1899  0067                     i1l1975:	
  1900                           
  1901                           ;L210004 JCT.c: 582: else{
  1902                           ;L210004 JCT.c: 583: LATA2 = 0;
  1903  0067  0022               	movlb	2	; select bank2
  1904  0068  110C               	bcf	12,2
  1905  0069                     i1l4778:	
  1906                           
  1907                           ;L210004 JCT.c: 588: }
  1908                           ;L210004 JCT.c: 590: if(TimerReload){
  1909  0069  0020               	movlb	0	; select bank0
  1910  006A  082B               	movf	_TimerReload+1,w	;volatile
  1911  006B  042A               	iorwf	_TimerReload,w	;volatile
  1912  006C  1903               	skipnz
  1913  006D  2873               	goto	i1l4782
  1914                           
  1915                           ;L210004 JCT.c: 591: TimerReload--;
  1916  006E  30FF               	movlw	-1
  1917  006F  07AA               	addwf	_TimerReload,f	;volatile
  1918  0070  1C03               	skipc
  1919  0071  03AB               	decf	_TimerReload+1,f	;volatile
  1920                           
  1921                           ;L210004 JCT.c: 592: }
  1922  0072  287F               	goto	i1l4790
  1923  0073                     i1l4782:	
  1924                           
  1925                           ;L210004 JCT.c: 593: else{
  1926                           ;L210004 JCT.c: 594: TimerReload = ((50000/256)/(2 * (4 * 1000000 / 4000000)));
  1927  0073  3061               	movlw	97
  1928  0074  00AA               	movwf	_TimerReload	;volatile
  1929  0075  01AB               	clrf	_TimerReload+1	;volatile
  1930                           
  1931                           ;L210004 JCT.c: 595: if(!power){
  1932  0076  08C2               	movf	_power,f
  1933  0077  1D03               	skipz
  1934  0078  287D               	goto	i1l4788
  1935                           
  1936                           ;L210004 JCT.c: 596: jct_massage_reset();
  1937  0079  3183  236D  3180   	fcall	i1_jct_massage_reset
  1938                           
  1939                           ;L210004 JCT.c: 597: }
  1940  007C  287F               	goto	i1l4790
  1941  007D                     i1l4788:	
  1942                           
  1943                           ;L210004 JCT.c: 598: else{
  1944                           ;L210004 JCT.c: 599: massage();
  1945  007D  3182  229E         	fcall	_massage
  1946  007F                     i1l4790:	
  1947                           
  1948                           ;L210004 JCT.c: 600: }
  1949                           ;L210004 JCT.c: 601: }
  1950                           ;L210004 JCT.c: 602: TMR0IF = 0;
  1951  007F  110B               	bcf	11,2
  1952  0080                     i1l1982:	
  1953  0080  0872               	movf	??_isr,w
  1954  0081  0020               	movlb	0	; select bank0
  1955  0082  00FF               	movwf	127
  1956  0083  0009               	retfie
  1957  0084                     __end_of_isr:	
  1958                           
  1959                           	psect	text333
  1960  029E                     __ptext333:	
  1961 ;; =============== function _isr ends ============
  1962                           
  1963                           
  1964 ;; *************** function _massage *****************
  1965 ;; Defined at:
  1966 ;;		line 606 in file "L210004 JCT.c"
  1967 ;; Parameters:    Size  Location     Type
  1968 ;;		None
  1969 ;; Auto vars:     Size  Location     Type
  1970 ;;		None
  1971 ;; Return value:  Size  Location     Type
  1972 ;;		None               void
  1973 ;; Registers used:
  1974 ;;		wreg, status,2, status,0, pclath, cstack
  1975 ;; Tracked objects:
  1976 ;;		On entry : 1F/0
  1977 ;;		On exit  : 1F/2
  1978 ;;		Unchanged: FFFE0/0
  1979 ;; Data sizes:     COMMON   BANK0   BANK1   BANK2
  1980 ;;      Params:         0       0       0       0
  1981 ;;      Locals:         0       0       0       0
  1982 ;;      Temps:          0       0       0       0
  1983 ;;      Totals:         0       0       0       0
  1984 ;;Total ram usage:        0 bytes
  1985 ;; Hardware stack levels used:    1
  1986 ;; Hardware stack levels required when called:    1
  1987 ;; This function calls:
  1988 ;;		i1_jct_massage_off
  1989 ;;		i1_jct_massage_reset
  1990 ;; This function is called by:
  1991 ;;		_isr
  1992 ;; This function uses a non-reentrant model
  1993 ;;
  1994  029E                     _massage:	
  1995                           
  1996                           ;L210004 JCT.c: 607: if(massageSecTimer){
  1997                           
  1998                           ; Regs used in _massage: [wreg+status,2+status,0+pclath+cstack]
  1999  029E  0858               	movf	_massageSecTimer,w	;volatile
  2000  029F  1903               	btfsc	3,2
  2001  02A0  2AA3               	goto	i1l4796
  2002                           
  2003                           ;L210004 JCT.c: 608: massageSecTimer--;
  2004  02A1  03D8               	decf	_massageSecTimer,f	;volatile
  2005                           
  2006                           ;L210004 JCT.c: 609: }else{
  2007  02A2  2AB8               	goto	i1l4816
  2008  02A3                     i1l4796:	
  2009                           
  2010                           ;L210004 JCT.c: 610: massageCycleTimer++;
  2011  02A3  0AF0               	incf	_massageCycleTimer,f	;volatile
  2012                           
  2013                           ;L210004 JCT.c: 611: if(massageCycleTimer>=120){
  2014  02A4  3078               	movlw	120
  2015  02A5  0270               	subwf	_massageCycleTimer,w	;volatile
  2016  02A6  1C03               	skipc
  2017  02A7  2AB6               	goto	i1l4814
  2018                           
  2019                           ;L210004 JCT.c: 612: massageCycleTimer = 0;
  2020  02A8  01F0               	clrf	_massageCycleTimer	;volatile
  2021                           
  2022                           ;L210004 JCT.c: 613: if(massageCycles){
  2023  02A9  0841               	movf	_massageCycles,w	;volatile
  2024  02AA  1903               	btfsc	3,2
  2025  02AB  2AB6               	goto	i1l4814
  2026                           
  2027                           ;L210004 JCT.c: 614: massageCycles--;
  2028  02AC  0BC1               	decfsz	_massageCycles,f	;volatile
  2029                           
  2030                           ;L210004 JCT.c: 615: if(!massageCycles){
  2031  02AD  2AB6               	goto	i1l4814
  2032                           
  2033                           ;L210004 JCT.c: 616: power = 0;
  2034  02AE  01C2               	clrf	_power	;volatile
  2035                           
  2036                           ;L210004 JCT.c: 617: jct_massage_off();
  2037  02AF  235E  3182         	fcall	i1_jct_massage_off
  2038                           
  2039                           ;L210004 JCT.c: 618: jct_massage_reset();
  2040  02B1  236D  3182         	fcall	i1_jct_massage_reset
  2041                           
  2042                           ;L210004 JCT.c: 619: timer = 0;
  2043  02B3  01C8               	clrf	_timer	;volatile
  2044                           
  2045                           ;L210004 JCT.c: 620: vent_t = 1;
  2046  02B4  01C9               	clrf	_vent_t	;volatile
  2047  02B5  0AC9               	incf	_vent_t,f	;volatile
  2048  02B6                     i1l4814:	
  2049                           
  2050                           ;L210004 JCT.c: 621: }
  2051                           ;L210004 JCT.c: 622: }
  2052                           ;L210004 JCT.c: 623: }
  2053                           ;L210004 JCT.c: 624: massageSecTimer = 40;
  2054  02B6  3028               	movlw	40
  2055  02B7  00D8               	movwf	_massageSecTimer	;volatile
  2056  02B8                     i1l4816:	
  2057                           
  2058                           ;L210004 JCT.c: 625: }
  2059                           ;L210004 JCT.c: 626: if(massageCycleTimer<4){
  2060  02B8  3004               	movlw	4
  2061  02B9  0270               	subwf	_massageCycleTimer,w	;volatile
  2062  02BA  1803               	skipnc
  2063  02BB  2AC0               	goto	i1l4820
  2064  02BC                     i1l4818:	
  2065                           
  2066                           ;L210004 JCT.c: 627: LATA7 = 0;
  2067  02BC  0022               	movlb	2	; select bank2
  2068  02BD  138C               	bcf	12,7
  2069                           
  2070                           ;L210004 JCT.c: 628: LATA5 = 1;
  2071  02BE  168C               	bsf	12,5
  2072                           
  2073                           ;L210004 JCT.c: 629: LATA3 = 0;
  2074                           
  2075                           ;L210004 JCT.c: 630: LATA4 = 1;
  2076                           
  2077                           ;L210004 JCT.c: 631: LATA1 = 1;
  2078                           
  2079                           ;L210004 JCT.c: 632: }else if(massageCycleTimer<8){
  2080  02BF  2B71               	ljmp	PL6	;call to abstracted procedure
  2081  02C0                     i1l4820:	
  2082  02C0  3008               	movlw	8
  2083  02C1  0270               	subwf	_massageCycleTimer,w	;volatile
  2084  02C2  1803               	skipnc
  2085  02C3  2AC8               	goto	i1l4824
  2086  02C4                     i1l4822:	
  2087                           
  2088                           ;L210004 JCT.c: 633: LATA7 = 0;
  2089  02C4  0022               	movlb	2	; select bank2
  2090  02C5  138C               	bcf	12,7
  2091                           
  2092                           ;L210004 JCT.c: 634: LATA5 = 1;
  2093  02C6  168C               	bsf	12,5
  2094                           
  2095                           ;L210004 JCT.c: 635: LATA3 = 1;
  2096                           
  2097                           ;L210004 JCT.c: 636: LATA4 = 1;
  2098                           
  2099                           ;L210004 JCT.c: 637: LATA1 = 1;
  2100                           
  2101                           ;L210004 JCT.c: 638: }else if(massageCycleTimer<12){
  2102  02C7  2B79               	ljmp	PL8	;call to abstracted procedure
  2103  02C8                     i1l4824:	
  2104  02C8  300C               	movlw	12
  2105  02C9  0270               	subwf	_massageCycleTimer,w	;volatile
  2106  02CA  1803               	skipnc
  2107  02CB  2AD3               	goto	i1l4828
  2108  02CC                     i1l4826:	
  2109                           
  2110                           ;L210004 JCT.c: 639: LATA7 = 1;
  2111  02CC  0022               	movlb	2	; select bank2
  2112  02CD  178C               	bsf	12,7
  2113                           
  2114                           ;L210004 JCT.c: 640: LATA5 = 0;
  2115  02CE  128C               	bcf	12,5
  2116                           
  2117                           ;L210004 JCT.c: 641: LATA3 = 1;
  2118  02CF  158C               	bsf	12,3
  2119                           
  2120                           ;L210004 JCT.c: 642: LATA4 = 0;
  2121  02D0  120C               	bcf	12,4
  2122                           
  2123                           ;L210004 JCT.c: 643: LATA1 = 1;
  2124  02D1  148C               	bsf	12,1
  2125                           
  2126                           ;L210004 JCT.c: 644: }else if(massageCycleTimer<16){
  2127  02D2  0008               	return
  2128  02D3                     i1l4828:	
  2129  02D3  3010               	movlw	16
  2130  02D4  0270               	subwf	_massageCycleTimer,w	;volatile
  2131  02D5  1C03               	btfss	3,0
  2132  02D6  2AC4               	goto	i1l4822
  2133  02D7  3018               	movlw	24
  2134  02D8  0270               	subwf	_massageCycleTimer,w	;volatile
  2135  02D9  1C03               	btfss	3,0
  2136  02DA  2ABC               	goto	i1l4818
  2137  02DB  301C               	movlw	28
  2138  02DC  0270               	subwf	_massageCycleTimer,w	;volatile
  2139  02DD  1C03               	btfss	3,0
  2140  02DE  2AC4               	goto	i1l4822
  2141  02DF  3020               	movlw	32
  2142  02E0  0270               	subwf	_massageCycleTimer,w	;volatile
  2143  02E1  1C03               	btfss	3,0
  2144  02E2  2ACC               	goto	i1l4826
  2145  02E3  3024               	movlw	36
  2146  02E4  0270               	subwf	_massageCycleTimer,w	;volatile
  2147  02E5  1C03               	btfss	3,0
  2148  02E6  2AC4               	goto	i1l4822
  2149  02E7  3028               	movlw	40
  2150  02E8  0270               	subwf	_massageCycleTimer,w	;volatile
  2151  02E9  1C03               	btfss	3,0
  2152  02EA  2ABC               	goto	i1l4818
  2153  02EB  3030               	movlw	48
  2154  02EC  0270               	subwf	_massageCycleTimer,w	;volatile
  2155  02ED  1803               	skipnc
  2156  02EE  2AF3               	goto	i1l4856
  2157  02EF                     i1l4854:	
  2158                           
  2159                           ;L210004 JCT.c: 681: LATA7 = 0;
  2160  02EF  0022               	movlb	2	; select bank2
  2161  02F0  138C               	bcf	12,7
  2162                           
  2163                           ;L210004 JCT.c: 682: LATA5 = 1;
  2164  02F1  168C               	bsf	12,5
  2165                           
  2166                           ;L210004 JCT.c: 683: LATA3 = 0;
  2167                           
  2168                           ;L210004 JCT.c: 684: LATA4 = 0;
  2169                           
  2170                           ;L210004 JCT.c: 685: LATA1 = 0;
  2171                           
  2172                           ;L210004 JCT.c: 686: }else if(massageCycleTimer<52){
  2173  02F2  2B75               	ljmp	PL7	;call to abstracted procedure
  2174  02F3                     i1l4856:	
  2175  02F3  3034               	movlw	52
  2176  02F4  0270               	subwf	_massageCycleTimer,w	;volatile
  2177  02F5  1803               	skipnc
  2178  02F6  2AFB               	goto	i1l4860
  2179                           
  2180                           ;L210004 JCT.c: 687: LATA7 = 0;
  2181  02F7  0022               	movlb	2	; select bank2
  2182  02F8  138C               	bcf	12,7
  2183                           
  2184                           ;L210004 JCT.c: 688: LATA5 = 0;
  2185  02F9  128C               	bcf	12,5
  2186                           
  2187                           ;L210004 JCT.c: 689: LATA3 = 0;
  2188                           
  2189                           ;L210004 JCT.c: 690: LATA4 = 1;
  2190                           
  2191                           ;L210004 JCT.c: 691: LATA1 = 1;
  2192                           
  2193                           ;L210004 JCT.c: 692: }else if(massageCycleTimer<56){
  2194  02FA  2B71               	ljmp	PL6	;call to abstracted procedure
  2195  02FB                     i1l4860:	
  2196  02FB  3038               	movlw	56
  2197  02FC  0270               	subwf	_massageCycleTimer,w	;volatile
  2198  02FD  1C03               	btfss	3,0
  2199  02FE  2AC4               	goto	i1l4822
  2200  02FF  303E               	movlw	62
  2201  0300  0270               	subwf	_massageCycleTimer,w	;volatile
  2202  0301  1803               	skipnc
  2203  0302  2B14               	goto	i1l4872
  2204  0303                     L3:	
  2205                           
  2206                           ;L210004 JCT.c: 700: LATA7 = 0;
  2207  0303  0022               	movlb	2	; select bank2
  2208  0304  300F               	movlw	15
  2209  0305  138C               	bcf	12,7
  2210                           
  2211                           ;L210004 JCT.c: 701: LATA5 = 0;
  2212  0306  128C               	bcf	12,5
  2213                           
  2214                           ;L210004 JCT.c: 702: LATA1 = 1;
  2215  0307  148C               	bsf	12,1
  2216                           
  2217                           ;L210004 JCT.c: 703: if(massageSecTimer<15){
  2218  0308  0020               	movlb	0	; select bank0
  2219  0309  0258               	subwf	_massageSecTimer,w	;volatile
  2220  030A  1803               	skipnc
  2221  030B  2B10               	goto	i1l2015
  2222                           
  2223                           ;L210004 JCT.c: 704: LATA4 = 0;
  2224  030C  0022               	movlb	2	; select bank2
  2225  030D  120C               	bcf	12,4
  2226                           
  2227                           ;L210004 JCT.c: 705: LATA3 = 0;
  2228  030E  118C               	bcf	12,3
  2229                           
  2230                           ;L210004 JCT.c: 706: }else{
  2231  030F  0008               	return
  2232  0310                     i1l2015:	
  2233                           
  2234                           ;L210004 JCT.c: 707: LATA4 = 1;
  2235  0310  0022               	movlb	2	; select bank2
  2236  0311  160C               	bsf	12,4
  2237                           
  2238                           ;L210004 JCT.c: 708: LATA3 = 1;
  2239  0312  158C               	bsf	12,3
  2240  0313  0008               	return
  2241  0314                     i1l4872:	
  2242  0314  3042               	movlw	66
  2243  0315  0270               	subwf	_massageCycleTimer,w	;volatile
  2244  0316  1803               	skipnc
  2245  0317  2B1C               	goto	i1l4876
  2246  0318                     i1l4874:	
  2247                           
  2248                           ;L210004 JCT.c: 711: LATA7 = 0;
  2249  0318  0022               	movlb	2	; select bank2
  2250  0319  138C               	bcf	12,7
  2251                           
  2252                           ;L210004 JCT.c: 712: LATA5 = 0;
  2253  031A  128C               	bcf	12,5
  2254                           
  2255                           ;L210004 JCT.c: 713: LATA3 = 1;
  2256                           
  2257                           ;L210004 JCT.c: 714: LATA4 = 1;
  2258                           
  2259                           ;L210004 JCT.c: 715: LATA1 = 1;
  2260                           
  2261                           ;L210004 JCT.c: 716: }else if (massageCycleTimer<70){
  2262  031B  2B79               	ljmp	PL8	;call to abstracted procedure
  2263  031C                     i1l4876:	
  2264  031C  3046               	movlw	70
  2265  031D  0270               	subwf	_massageCycleTimer,w	;volatile
  2266  031E  1C03               	btfss	3,0
  2267  031F  2B03               	goto	L3
  2268                           
  2269                           ;L210004 JCT.c: 720: if(massageSecTimer<15){
  2270                           
  2271                           ;L210004 JCT.c: 719: LATA1 = 1;
  2272                           
  2273                           ;L210004 JCT.c: 718: LATA5 = 0;
  2274                           
  2275                           ;L210004 JCT.c: 717: LATA7 = 0;
  2276  0320  304A               	movlw	74
  2277  0321  0270               	subwf	_massageCycleTimer,w	;volatile
  2278  0322  1C03               	btfss	3,0
  2279  0323  2B18               	goto	i1l4874
  2280  0324  3050               	movlw	80
  2281  0325  0270               	subwf	_massageCycleTimer,w	;volatile
  2282  0326  1803               	skipnc
  2283  0327  2B2C               	goto	i1l4892
  2284                           
  2285                           ;L210004 JCT.c: 734: LATA7 = 0;
  2286  0328  0022               	movlb	2	; select bank2
  2287  0329  138C               	bcf	12,7
  2288                           
  2289                           ;L210004 JCT.c: 735: LATA5 = 0;
  2290  032A  128C               	bcf	12,5
  2291                           
  2292                           ;L210004 JCT.c: 736: LATA3 = 0;
  2293                           
  2294                           ;L210004 JCT.c: 737: LATA4 = 0;
  2295                           
  2296                           ;L210004 JCT.c: 738: LATA1 = 0;
  2297                           
  2298                           ;L210004 JCT.c: 739: }else if(massageCycleTimer<88){
  2299  032B  2B75               	ljmp	PL7	;call to abstracted procedure
  2300  032C                     i1l4892:	
  2301  032C  3058               	movlw	88
  2302  032D  0270               	subwf	_massageCycleTimer,w	;volatile
  2303  032E  1803               	skipnc
  2304  032F  2B37               	goto	i1l4896
  2305                           
  2306                           ;L210004 JCT.c: 740: LATA7 = 1;
  2307  0330  0022               	movlb	2	; select bank2
  2308  0331  178C               	bsf	12,7
  2309                           
  2310                           ;L210004 JCT.c: 741: LATA5 = 0;
  2311  0332  128C               	bcf	12,5
  2312                           
  2313                           ;L210004 JCT.c: 742: LATA3 = 0;
  2314  0333  118C               	bcf	12,3
  2315                           
  2316                           ;L210004 JCT.c: 743: LATA4 = 0;
  2317  0334  120C               	bcf	12,4
  2318                           
  2319                           ;L210004 JCT.c: 744: LATA1 = 1;
  2320  0335  148C               	bsf	12,1
  2321                           
  2322                           ;L210004 JCT.c: 745: }else if(massageCycleTimer<92){
  2323  0336  0008               	return
  2324  0337                     i1l4896:	
  2325  0337  305C               	movlw	92
  2326  0338  0270               	subwf	_massageCycleTimer,w	;volatile
  2327  0339  1C03               	btfss	3,0
  2328  033A  2ACC               	goto	i1l4826
  2329  033B  3062               	movlw	98
  2330  033C  0270               	subwf	_massageCycleTimer,w	;volatile
  2331  033D  1803               	skipnc
  2332  033E  2B51               	goto	i1l4908
  2333  033F                     L4:	
  2334                           
  2335                           ;L210004 JCT.c: 752: LATA1 = 1;
  2336  033F  0022               	movlb	2	; select bank2
  2337  0340  300F               	movlw	15
  2338  0341  148C               	bsf	12,1
  2339                           
  2340                           ;L210004 JCT.c: 753: LATA4 = 0;
  2341  0342  120C               	bcf	12,4
  2342                           
  2343                           ;L210004 JCT.c: 754: if(massageSecTimer<15){
  2344  0343  0020               	movlb	0	; select bank0
  2345  0344  0258               	subwf	_massageSecTimer,w	;volatile
  2346  0345  1803               	skipnc
  2347  0346  2B4C               	goto	i1l2033
  2348                           
  2349                           ;L210004 JCT.c: 755: LATA7 = 0;
  2350  0347  0022               	movlb	2	; select bank2
  2351  0348  138C               	bcf	12,7
  2352                           
  2353                           ;L210004 JCT.c: 756: LATA5 = 1;
  2354  0349  168C               	bsf	12,5
  2355                           
  2356                           ;L210004 JCT.c: 757: LATA3 = 0;
  2357  034A  118C               	bcf	12,3
  2358                           
  2359                           ;L210004 JCT.c: 758: }else{
  2360  034B  0008               	return
  2361  034C                     i1l2033:	
  2362                           ;L210004 JCT.c: 772: if(massageSecTimer<15){
  2363                           
  2364                           ;L210004 JCT.c: 771: LATA4 = 0;
  2365                           
  2366                           ;L210004 JCT.c: 770: LATA1 = 1;
  2367                           
  2368                           
  2369                           ;L210004 JCT.c: 759: LATA7 = 1;
  2370  034C  0022               	movlb	2	; select bank2
  2371  034D  178C               	bsf	12,7
  2372                           
  2373                           ;L210004 JCT.c: 760: LATA5 = 0;
  2374  034E  128C               	bcf	12,5
  2375                           
  2376                           ;L210004 JCT.c: 761: LATA3 = 1;
  2377  034F  158C               	bsf	12,3
  2378  0350  0008               	return
  2379  0351                     i1l4908:	
  2380  0351  3066               	movlw	102
  2381  0352  0270               	subwf	_massageCycleTimer,w	;volatile
  2382  0353  1C03               	btfss	3,0
  2383  0354  2ACC               	goto	i1l4826
  2384  0355  306A               	movlw	106
  2385  0356  0270               	subwf	_massageCycleTimer,w	;volatile
  2386  0357  1C03               	btfss	3,0
  2387  0358  2B3F               	goto	L4
  2388  0359  306F               	movlw	111
  2389  035A  0270               	subwf	_massageCycleTimer,w	;volatile
  2390  035B  1C03               	btfss	3,0
  2391  035C  2ACC               	goto	i1l4826
  2392  035D  2AEF               	goto	i1l4854
  2393  035E                     __end_of_massage:	
  2394  035E                     __ptext335:	
  2395 ;; =============== function i1_jct_massage_reset ends ============
  2396                           
  2397                           
  2398 ;; *************** function i1_jct_massage_off *****************
  2399 ;; Defined at:
  2400 ;;		line 801 in file "L210004 JCT.c"
  2401 ;; Parameters:    Size  Location     Type
  2402 ;;		None
  2403 ;; Auto vars:     Size  Location     Type
  2404 ;;		None
  2405 ;; Return value:  Size  Location     Type
  2406 ;;		None               void
  2407 ;; Registers used:
  2408 ;;		wreg, status,2
  2409 ;; Tracked objects:
  2410 ;;		On entry : 1F/0
  2411 ;;		On exit  : 1F/0
  2412 ;;		Unchanged: FFFE0/0
  2413 ;; Data sizes:     COMMON   BANK0   BANK1   BANK2
  2414 ;;      Params:         0       0       0       0
  2415 ;;      Locals:         0       0       0       0
  2416 ;;      Temps:          0       0       0       0
  2417 ;;      Totals:         0       0       0       0
  2418 ;;Total ram usage:        0 bytes
  2419 ;; Hardware stack levels used:    1
  2420 ;; This function calls:
  2421 ;;		Nothing
  2422 ;; This function is called by:
  2423 ;;		_massage
  2424 ;; This function uses a non-reentrant model
  2425 ;;
  2426  035E                     i1_jct_massage_off:	
  2427                           
  2428                           ;L210004 JCT.c: 802: power = 0;
  2429                           
  2430                           ; Regs used in i1_jct_massage_off: [wreg+status,2]
  2431  035E  01C2               	clrf	_power	;volatile
  2432                           
  2433                           ;L210004 JCT.c: 803: m_flag = 0;
  2434  035F  01C0               	clrf	_m_flag	;volatile
  2435                           
  2436                           ;L210004 JCT.c: 804: LATA1 = 0;
  2437  0360  0022               	movlb	2	; select bank2
  2438  0361  108C               	bcf	12,1
  2439                           
  2440                           ;L210004 JCT.c: 805: LATA0 = 0;
  2441  0362  100C               	bcf	12,0
  2442                           
  2443                           ;L210004 JCT.c: 806: LATA7 = 0;
  2444  0363  138C               	bcf	12,7
  2445                           
  2446                           ;L210004 JCT.c: 807: LATA0 = 0;
  2447  0364  100C               	bcf	12,0
  2448                           
  2449                           ;L210004 JCT.c: 808: LATA5 = 0;
  2450  0365  128C               	bcf	12,5
  2451                           
  2452                           ;L210004 JCT.c: 809: LATA4 = 0;
  2453  0366  120C               	bcf	12,4
  2454                           
  2455                           ;L210004 JCT.c: 810: LATA3 = 0;
  2456  0367  118C               	bcf	12,3
  2457                           
  2458                           ;L210004 JCT.c: 811: massageCycleTimer = 0;
  2459  0368  01F0               	clrf	_massageCycleTimer	;volatile
  2460                           
  2461                           ;L210004 JCT.c: 812: massageSecTimer = 40;
  2462  0369  3028               	movlw	40
  2463  036A  0020               	movlb	0	; select bank0
  2464  036B  00D8               	movwf	_massageSecTimer	;volatile
  2465  036C  0008               	return
  2466  036D                     __end_ofi1_jct_massage_off:	
  2467  036D                     __ptext334:	
  2468 ;; =============== function _massage ends ============
  2469                           
  2470                           
  2471 ;; *************** function i1_jct_massage_reset *****************
  2472 ;; Defined at:
  2473 ;;		line 815 in file "L210004 JCT.c"
  2474 ;; Parameters:    Size  Location     Type
  2475 ;;		None
  2476 ;; Auto vars:     Size  Location     Type
  2477 ;;		None
  2478 ;; Return value:  Size  Location     Type
  2479 ;;		None               void
  2480 ;; Registers used:
  2481 ;;		wreg, status,2
  2482 ;; Tracked objects:
  2483 ;;		On entry : 1F/0
  2484 ;;		On exit  : 1F/0
  2485 ;;		Unchanged: FFFE0/0
  2486 ;; Data sizes:     COMMON   BANK0   BANK1   BANK2
  2487 ;;      Params:         0       0       0       0
  2488 ;;      Locals:         0       0       0       0
  2489 ;;      Temps:          0       0       0       0
  2490 ;;      Totals:         0       0       0       0
  2491 ;;Total ram usage:        0 bytes
  2492 ;; Hardware stack levels used:    1
  2493 ;; This function calls:
  2494 ;;		Nothing
  2495 ;; This function is called by:
  2496 ;;		_isr
  2497 ;;		_massage
  2498 ;; This function uses a non-reentrant model
  2499 ;;
  2500  036D                     i1_jct_massage_reset:	
  2501                           
  2502                           ;L210004 JCT.c: 816: massageCycleTimer = 0;
  2503                           
  2504                           ; Regs used in i1_jct_massage_reset: [wreg+status,2]
  2505  036D  01F0               	clrf	_massageCycleTimer	;volatile
  2506                           
  2507                           ;L210004 JCT.c: 817: massageSecTimer = 40;
  2508  036E  3028               	movlw	40
  2509  036F  00D8               	movwf	_massageSecTimer	;volatile
  2510  0370  0008               	return
  2511  0371                     __end_ofi1_jct_massage_reset:	
  2512  0371                     PL6:	
  2513  0371  118C               	bcf	12,3
  2514  0372  160C               	bsf	12,4
  2515  0373  148C               	bsf	12,1
  2516  0374  0008               	return
  2517  0375                     PL7:	
  2518  0375  118C               	bcf	12,3
  2519  0376  120C               	bcf	12,4
  2520  0377  108C               	bcf	12,1
  2521  0378  0008               	return
  2522  0379                     PL8:	
  2523  0379  158C               	bsf	12,3
  2524  037A  160C               	bsf	12,4
  2525  037B  148C               	bsf	12,1
  2526  037C  0008               	return
  2527                           
  2528                           	psect	text336
  2529  0000                     __ptext336:	
  2530 ;; =============== function i1_jct_massage_off ends ============
  2531                           
  2532  007E                     btemp	set	126	;btemp
  2533  007E                     wtemp0	set	126


HI-TECH Software PICC Macro Assembler V9.83 build 10920 
Symbol Table                                                                                   Fri Mar 26 15:07:29 2021

           ??_jct_massage_off 0073             _jct_massage_reset 0275                            _rc 0071  
          ?_jct_massage_reset 0072                           _GIE 005F                           _isr 0004  
                         wreg 0009    __size_ofi1_jct_massage_off 000F           ??_jct_massage_reset 0073  
                        l2050 0000                          l2053 0000                          l2047 0000  
                        l1930 0188                          l1941 01D6                          l5310 0000  
                        l1935 01AC                          l1919 014F                          l5304 0000  
                        l5320 0000                          l5312 0000                          l1945 01F3  
                        l5322 0000                          l5314 0000                          l5306 0000  
                        l5410 0113                          l5330 0000                          l1891 025F  
                        l5316 0000                          l5308 0000                          l5324 0000  
                        l5420 0000                          l5412 0000                          l5404 0111  
                        l5340 0000                          l5332 0000                          l1885 027A  
                        l1894 0000                          l5318 0000                          l5326 0000  
                        l1958 0256                          l5510 0000                          l5502 0000  
                        l5430 0000                          l5414 0000                          l5350 0000  
                        l5342 0000                          l5334 0000                          l1888 0000  
                        l5600 0000                          l5520 01A5                          l5512 0000  
                        l5432 0136                          l5416 0000                          l5360 00CA  
                        l5352 0000                          l5344 0000                          l5336 0000  
                        l5328 0000                          l5602 0000                          l5610 021F  
                        l5530 0000                          l5514 0000                          l5506 0194  
                        l5450 0000                          l5442 0142                          l5370 0000  
                        l5362 0000                          l5354 0000                          l5346 0000  
                        l5338 0000                          l5620 0000                          l5604 0000  
                        l5540 0000                          l5532 0000                          l5516 019F  
                        l5524 01B1                          l5452 0000                          l5436 0000  
                        l5380 00DF                          l5372 0000                          l5364 0000  
                        l5356 0000                          l5348 0000                          l5294 0000  
                        l5630 0000                          l5622 0000                          l5606 0000  
                        l5542 0000                          l5534 01BE                          l5470 0000  
                        l5454 0000                          l5446 0147                          l5438 0000  
                        l5390 00F6                          l5382 0000                          l5366 00D1  
                        l5358 00C7                          l5632 0000                          l5624 0000  
                        l5640 0238                          l5608 0000                          l5560 0000  
                        l5544 01C9                          l5552 01DB                          l5528 0000  
                        l5472 0161                          l5448 0000                          l5384 0000  
                        l5368 0000                          l5298 0000                          l5650 0000  
                        l5634 0000                          l5626 0000                          l5618 0000  
                        l5562 01E6                          l5570 01F8                          l5538 0000  
                        l5482 0000                          l5466 0000                          l5458 0000  
                        l5386 00EF                          l5660 0000                          l5652 0000  
                        l5644 0000                          l5636 0000                          l5628 0000  
                        l5580 0206                          l5556 0000                          l5548 01CF  
                        l5492 0000                          l5484 0000                          l5476 0000  
                        l5468 0000                          l5396 0000                          l5388 00F2  
                        l5670 0000                          l5662 0000                          l5654 0000  
                        l5646 0000                          l5638 0000                          l5590 0000  
                        l5574 0000                          l5566 01EC                          l5558 0000  
                        l5494 0000                          l5486 0000                          l5478 0169  
                        l5664 0000                          l5656 0000                          l5648 0000  
                        l5592 0000                          l5576 0000                          l5496 0000  
                        l5488 0177                          l5674 0000                          l5658 0000  
                        l5666 024B                          l5594 0000                          l5578 0000  
                        l5498 0182                          l5596 0000                          l5588 0000  
                        ?_isr 0072                          l5598 0000                          _CREN 0CEC  
                        _FERR 0CEA                          _LATA 010C                          _LATB 010D  
                        _LATC 010E                          _RCIF 008D                          _OERR 0CE9  
                        _SPEN 0CEF                          _TXIF 008C                          _WPUB 020D  
                        _main 009C                          fsr0h 0005                          fsr1h 0007  
                        fsr0l 0004                          indf0 0000                          indf1 0001  
                        fsr1l 0006                          btemp 007E                          start 0084  
   __end_of_jct_massage_reset 0279                         ??_isr 0072                         ?_main 0072  
                       _LATA0 0860                         _LATA1 0861                         _LATA2 0862  
                       _LATB1 0869                         _LATA3 0863                         _LATB2 086A  
                       _LATA4 0864                         _LATB3 086B                         _LATA5 0865  
                       _LATB4 086C                         _LATA7 0867                         _RCREG 0199  
                       _RCSTA 019D                         _SPBRG 019B                         _TRISA 008C  
                       _TRISB 008D                         _TRISC 008E                         _TXREG 019A  
                       _TXSTA 019E                         _getch 025F               __end_of_massage 035E  
                       _timer 0048                         _power 0042                         _putch 0279  
                       main@c 0051                         main@i 004D                         main@q 004B  
                       wtemp0 007E               _massageSecTimer 0058                _jct_massage_on 0280  
                __end_of_main 025F  __size_ofi1_jct_massage_reset 0004                        ??_main 0074  
                      ?_getch 0072                        _ANSELA 018C                        ?_putch 0072  
                      _ANSELB 018D                        u100_25 002F                        u101_25 0050  
                      i1l2015 0310                        i1l2033 034C                        i1l2050 0000  
                      i1l2053 0000                        u103_25 0062                        i1l1970 0039  
                      i1l1982 0080                        i1l1975 0067                        i1l4810 0000  
                      i1l4802 0000                        i1l4820 02C0                        i1l4812 0000  
                      i1l4804 0000                        i1l4822 02C4                        i1l4806 0000  
                      i1l4814 02B6                        i1l4742 0000                        i1l4904 0000  
                      i1l4824 02C8                        i1l4808 0000                        i1l4816 02B8  
                      i1l4760 0000                        i1l4752 0023                        i1l4930 0000  
                      i1l4826 02CC                        i1l4818 02BC                        i1l4762 0000  
                      i1l4754 0000                        i1l4738 0000                        i1l4940 0000  
                      i1l4932 0000                        i1l4924 0000                        i1l4916 0000  
                      i1l4908 0351                        i1l4860 02FB                        i1l4828 02D3  
                      i1l4772 0055                        i1l4764 0041                        i1l4748 0000  
                      i1l4934 0000                        i1l4926 0000                        i1l4942 0000  
                      i1l4854 02EF                        i1l4790 007F                        i1l4782 0073  
                      i1l4774 0000                        i1l4758 0000                        i1l4766 0044  
                      i1l4936 0000                        i1l4928 0000                        i1l4944 0000  
                      i1l4880 0000                        i1l4872 0314                        i1l4856 02F3  
                      i1l4792 0000                        i1l4784 0000                        i1l4768 0000  
                      i1l4938 0000                        i1l4874 0318                        i1l4794 0000  
                      i1l4778 0069                        i1l4892 032C                        i1l4876 031C  
                      i1l4868 0000                        i1l4796 02A3                        i1l4788 007D  
                      i1l4798 0000                        i1l4896 0337                        _INTCON 000B  
                      _OSCCON 0099                        _TMR0IE 005D                        _TMR0IF 005A  
                      _SPBRGH 019C                        _SPBRGL 019B        __end_of_jct_massage_on 0286  
                      _TRISC6 0476                        _TRISC7 0477    __size_of_jct_massage_reset 0004  
                      _hrOpen 003E                        _m_flag 0040                        _prOpen 0045  
                      _vent_c 0056                        _vent_t 0049                        clrloop 037E  
                   ??_massage 0072               ?_jct_massage_on 0072               _jct_massage_off 0265  
              __pcstackCOMMON 0072                  __pidataBANK0 0000                 __end_of_getch 0265  
               _massageCycles 0041                 __end_of_putch 0280                       ??_getch 0073  
                     ??_putch 0073                    __pbssBANK0 0020                    __pmaintext 009C  
                  __pintentry 0004                       _BAUDCON 019F                    _heat_reset 003B  
                _hrCloseDelay 003D       __end_of_jct_massage_off 0275           i1_jct_massage_reset 036D  
                     _a_count 002C          ?i1_jct_massage_reset 0072                  _heat_timeout 0030  
                     _hrClose 003C                       _heat_en 003A                   _TimerReload 002A  
                     _p_count 0032                       _last_rc 0020                       _prClose 0043  
                     _massage 029E                  __size_of_isr 0080                       _w_count 0036  
                     _z_count 0038                       _tx_char 0025          end_of_initialization 009A  
           _massageCycleTimer 0070         ??i1_jct_massage_reset 0072                  _comm_timeout 002E  
                  _pulsePhase 0059              ??_jct_massage_on 0073              ?_jct_massage_off 0072  
                  main@i_3027 0052                    main@i_3028 004F           start_initialization 0087  
                 __end_of_isr 0084                   __pdataBANK0 0054                   __pbssCOMMON 0070  
               __pcstackBANK0 004A                  _prCloseDelay 0044                     __ptext330 025F  
                   __ptext331 0279                     __ptext333 029E                     __ptext334 036D  
                   __ptext335 035E                     __ptext327 0275                     __ptext336 0000  
                   __ptext328 0265                     __ptext329 0280                      ?_massage 0072  
              __size_of_getch 0006                __size_of_putch 0007                   _hrOpenDelay 003F  
                   _pwm_count 0034   __end_ofi1_jct_massage_reset 0371              __size_of_massage 00C0  
           i1_jct_massage_off 035E            ?i1_jct_massage_off 0072                 __size_of_main 01C3  
                    _rc_error 0047      __size_of_jct_massage_off 0010                   _prOpenDelay 0046  
                    clear_ram 037D           ??i1_jct_massage_off 0072                      _time_out 0054  
                    main@echo 004A                     putch@byte 0073     __end_ofi1_jct_massage_off 036D  
                    intlevel1 0000       __size_of_jct_massage_on 0006                    _OPTION_REG 0095  
