

HI-TECH Software PIC PRO Macro Assembler V9.83 build 10920 
                                                                                               Thu Mar 18 09:55:47 2021

HI-TECH Software Omniscient Code Generator (PRO mode) build 10920
     1                           	processor	16F1933
     2                           	opt	pw 120
     3                           	opt	pm
     4                           	psect	config,global,class=CONFIG,delta=2
     5                           	psect	idataBANK0,global,class=CODE,delta=2
     6                           	psect	cinit,global,class=CODE,delta=2
     7                           	psect	bssCOMMON,global,class=COMMON,space=1,delta=1
     8                           	psect	bssBANK0,global,class=BANK0,space=1,delta=1
     9                           	psect	dataBANK0,global,class=BANK0,space=1,delta=1
    10                           	psect	clrtext,global,class=CODE,delta=2
    11                           	psect	cstackCOMMON,global,class=COMMON,space=1,delta=1
    12                           	psect	cstackBANK0,global,class=BANK0,space=1,delta=1
    13                           	psect	intentry,global,class=CODE,delta=2
    14                           	psect	text443,local,class=CODE,delta=2
    15                           	psect	text444,local,class=CODE,delta=2
    16                           	psect	text445,local,class=CODE,delta=2
    17                           	psect	text446,local,class=CODE,delta=2
    18                           	psect	text447,local,class=CODE,delta=2
    19                           	psect	text448,local,class=CODE,delta=2
    20                           	psect	pa_nodes,global,class=CODE,delta=2
    21                           	dabs	1,0x7E,2
    22  000A                     	;#
    23                           
    24                           	psect	config
    25  8007  F924               	dw	63780	;#
    26  8008  DDFF               	dw	56831	;#
    27                           
    28                           	psect	idataBANK0
    29  0000                     __pidataBANK0:	
    30  000B                     _INTCON	set	11
    31  005F                     _GIE	set	95
    32  008D                     _RCIF	set	141
    33  005D                     _TMR0IE	set	93
    34  005A                     _TMR0IF	set	90
    35  008C                     _TXIF	set	140
    36  0095                     _OPTION_REG	set	149
    37  0099                     _OSCCON	set	153
    38  008C                     _TRISA	set	140
    39  008D                     _TRISB	set	141
    40  008E                     _TRISC	set	142
    41  0476                     _TRISC6	set	1142
    42  0477                     _TRISC7	set	1143
    43  010C                     _LATA	set	268
    44  010D                     _LATB	set	269
    45  010E                     _LATC	set	270
    46  0860                     _LATA0	set	2144
    47  0861                     _LATA1	set	2145
    48  0862                     _LATA2	set	2146
    49  0863                     _LATA3	set	2147
    50  0864                     _LATA4	set	2148
    51  0865                     _LATA5	set	2149
    52  0867                     _LATA7	set	2151
    53  0869                     _LATB1	set	2153
    54  086A                     _LATB2	set	2154
    55  086B                     _LATB3	set	2155
    56  086C                     _LATB4	set	2156
    57  018C                     _ANSELA	set	396
    58  018D                     _ANSELB	set	397
    59  019F                     _BAUDCON	set	415
    60  0199                     _RCREG	set	409
    61  019D                     _RCSTA	set	413
    62  019B                     _SPBRG	set	411
    63  019C                     _SPBRGH	set	412
    64  019B                     _SPBRGL	set	411
    65  019A                     _TXREG	set	410
    66  019E                     _TXSTA	set	414
    67  0CEC                     _CREN	set	3308
    68  0CEA                     _FERR	set	3306
    69  0CE9                     _OERR	set	3305
    70  0CEF                     _SPEN	set	3311
    71  020D                     _WPUB	set	525
    72                           
    73                           	psect	cinit
    74  03CF                     start_initialization:	
    75  03CF  3020               	movlw	low __pbssBANK0
    76                           
    77                           ; Clear objects allocated to COMMON
    78  03D0  01F0               	clrf	__pbssCOMMON& (0+127)
    79  03D1  01F1               	clrf	(__pbssCOMMON+1)& (0+127)
    80                           
    81                           ; Clear objects allocated to BANK0
    82  03D2  0084               	movwf	4
    83  03D3  3000               	movlw	high __pbssBANK0
    84  03D4  0085               	movwf	5
    85  03D5  3024               	movlw	36
    86  03D6  3186  2672  3183   	fcall	clear_ram
    87                           
    88                           ;initializer for _time_out
    89  03D9  30C8               	movlw	200
    90  03DA  00CE               	movwf	__pdataBANK0& (0+127)
    91  03DB  01CF               	clrf	(__pdataBANK0+1)& (0+127)
    92                           
    93                           ;initializer for _vent_c
    94  03DC  00D0               	movwf	(__pdataBANK0+2)& (0+127)
    95  03DD  3001               	movlw	1
    96  03DE  01D1               	clrf	(__pdataBANK0+3)& (0+127)
    97                           
    98                           ;initializer for _alt_en
    99  03DF  00D2               	movwf	(__pdataBANK0+4)& (0+127)
   100                           
   101                           ;initializer for _zone0_en
   102  03E0  00D3               	movwf	(__pdataBANK0+5)& (0+127)
   103                           
   104                           ;initializer for _zone1_en
   105  03E1  00D4               	movwf	(__pdataBANK0+6)& (0+127)
   106                           
   107                           ;initializer for _zone2_en
   108  03E2  00D5               	movwf	(__pdataBANK0+7)& (0+127)
   109                           
   110                           ;initializer for _zone3_en
   111  03E3  00D6               	movwf	(__pdataBANK0+8)& (0+127)
   112  03E4                     end_of_initialization:	
   113                           ;End of C runtime variable initialization code
   114                           
   115  03E4  0020               	movlb	0
   116  03E5  2BE6               	ljmp	_main	;jump to C main() function
   117  03E6                     __pmaintext:	
   118 ;;Data sizes: Strings 0, constant 0, data 9, bss 38, persistent 0 stack 0
   119 ;;Auto spaces:   Size  Autos    Used
   120 ;; COMMON          14      2       4
   121 ;; BANK0           80     10      55
   122 ;; BANK1           80      0       0
   123 ;; BANK2           80      0       0
   124 ;;
   125 ;; Pointer list with targets:
   126 ;;
   127 ;; Critical Paths under _main in COMMON
   128 ;;
   129 ;;   _main->_putch
   130 ;;
   131 ;; Critical Paths under _isr in COMMON
   132 ;;
   133 ;;   None.
   134 ;;
   135 ;; Critical Paths under _main in BANK0
   136 ;;
   137 ;;   None.
   138 ;;
   139 ;; Critical Paths under _isr in BANK0
   140 ;;
   141 ;;   None.
   142 ;;
   143 ;; Critical Paths under _main in BANK1
   144 ;;
   145 ;;   None.
   146 ;;
   147 ;; Critical Paths under _isr in BANK1
   148 ;;
   149 ;;   None.
   150 ;;
   151 ;; Critical Paths under _main in BANK2
   152 ;;
   153 ;;   None.
   154 ;;
   155 ;; Critical Paths under _isr in BANK2
   156 ;;
   157 ;;   None.
   158 ;;
   159 ;;Main: autosize = 0, tempsize = 0, incstack = 0, save=0
   160 ;;
   161 ;;
   162 ;;Call Graph Tables:
   163 ;;
   164 ;; ---------------------------------------------------------------------------------
   165 ;; (Depth) Function   	        Calls       Base Space   Used Autos Params    Refs
   166 ;; ---------------------------------------------------------------------------------
   167 ;; (0) _main                                                10    10      0     535
   168 ;;                                              0 BANK0     10    10      0
   169 ;;                              _getch
   170 ;;                              _putch
   171 ;;                     _jct_massage_on
   172 ;;                    _jct_massage_off
   173 ;;                  _jct_massage_reset
   174 ;; ---------------------------------------------------------------------------------
   175 ;; (1) _jct_massage_reset                                    0     0      0       0
   176 ;; ---------------------------------------------------------------------------------
   177 ;; (1) _jct_massage_off                                      0     0      0       0
   178 ;; ---------------------------------------------------------------------------------
   179 ;; (1) _jct_massage_on                                       0     0      0       0
   180 ;; ---------------------------------------------------------------------------------
   181 ;; (1) _getch                                                0     0      0       0
   182 ;; ---------------------------------------------------------------------------------
   183 ;; (1) _putch                                                1     1      0      31
   184 ;;                                              1 COMMON     1     1      0
   185 ;; ---------------------------------------------------------------------------------
   186 ;; Estimated maximum stack depth 1
   187 ;; ---------------------------------------------------------------------------------
   188 ;; (Depth) Function   	        Calls       Base Space   Used Autos Params    Refs
   189 ;; ---------------------------------------------------------------------------------
   190 ;; (2) _isr                                                  1     1      0       0
   191 ;;                                              0 COMMON     1     1      0
   192 ;;                  i1_jct_massage_off
   193 ;;                i1_jct_massage_reset
   194 ;;                          _alternate
   195 ;;                               _wave
   196 ;;                              _pulse
   197 ;; ---------------------------------------------------------------------------------
   198 ;; (3) i1_jct_massage_reset                                  0     0      0       0
   199 ;; ---------------------------------------------------------------------------------
   200 ;; (3) i1_jct_massage_off                                    0     0      0       0
   201 ;; ---------------------------------------------------------------------------------
   202 ;; (3) _pulse                                                0     0      0       0
   203 ;; ---------------------------------------------------------------------------------
   204 ;; (3) _wave                                                 0     0      0       0
   205 ;; ---------------------------------------------------------------------------------
   206 ;; (3) _alternate                                            0     0      0       0
   207 ;; ---------------------------------------------------------------------------------
   208 ;; Estimated maximum stack depth 3
   209 ;; ---------------------------------------------------------------------------------
   210 ;; Call Graph Graphs:
   211 ;; _main (ROOT)
   212 ;;   _getch
   213 ;;   _putch
   214 ;;   _jct_massage_on
   215 ;;   _jct_massage_off
   216 ;;   _jct_massage_reset
   217 ;;
   218 ;; _isr (ROOT)
   219 ;;   i1_jct_massage_off
   220 ;;   i1_jct_massage_reset
   221 ;;   _alternate
   222 ;;   _wave
   223 ;;   _pulse
   224 ;;
   225 ;; Address spaces:
   226 ;;Name               Size   Autos  Total    Cost      Usage
   227 ;;BIGRAM              F0      0       0       0        0.0%
   228 ;;EEDATA             100      0       0       0        0.0%
   229 ;;NULL                 0      0       0       0        0.0%
   230 ;;CODE                 0      0       0       0        0.0%
   231 ;;BITCOMMON            E      0       0       1        0.0%
   232 ;;BITSFR0              0      0       0       1        0.0%
   233 ;;SFR0                 0      0       0       1        0.0%
   234 ;;COMMON               E      2       4       2       28.6%
   235 ;;BITSFR1              0      0       0       2        0.0%
   236 ;;SFR1                 0      0       0       2        0.0%
   237 ;;BITSFR2              0      0       0       3        0.0%
   238 ;;SFR2                 0      0       0       3        0.0%
   239 ;;STACK                0      0       5       3        0.0%
   240 ;;BITSFR3              0      0       0       4        0.0%
   241 ;;SFR3                 0      0       0       4        0.0%
   242 ;;ABS                  0      0      3B       4        0.0%
   243 ;;BITBANK0            50      0       0       5        0.0%
   244 ;;BITSFR4              0      0       0       5        0.0%
   245 ;;SFR4                 0      0       0       5        0.0%
   246 ;;BANK0               50      A      37       6       68.8%
   247 ;;BITSFR5              0      0       0       6        0.0%
   248 ;;SFR5                 0      0       0       6        0.0%
   249 ;;BITBANK1            50      0       0       7        0.0%
   250 ;;BITSFR6              0      0       0       7        0.0%
   251 ;;SFR6                 0      0       0       7        0.0%
   252 ;;BANK1               50      0       0       8        0.0%
   253 ;;BITSFR7              0      0       0       8        0.0%
   254 ;;SFR7                 0      0       0       8        0.0%
   255 ;;BITBANK2            50      0       0       9        0.0%
   256 ;;BITSFR8              0      0       0       9        0.0%
   257 ;;SFR8                 0      0       0       9        0.0%
   258 ;;BANK2               50      0       0      10        0.0%
   259 ;;BITSFR9              0      0       0      10        0.0%
   260 ;;SFR9                 0      0       0      10        0.0%
   261 ;;BITSFR10             0      0       0      11        0.0%
   262 ;;SFR10                0      0       0      11        0.0%
   263 ;;DATA                 0      0      40      11        0.0%
   264 ;;BITSFR11             0      0       0      12        0.0%
   265 ;;SFR11                0      0       0      12        0.0%
   266 ;;BITSFR12             0      0       0      13        0.0%
   267 ;;SFR12                0      0       0      13        0.0%
   268 ;;BITSFR13             0      0       0      14        0.0%
   269 ;;SFR13                0      0       0      14        0.0%
   270 ;;BITSFR14             0      0       0      15        0.0%
   271 ;;SFR14                0      0       0      15        0.0%
   272 ;;BITSFR15             0      0       0      16        0.0%
   273 ;;SFR15                0      0       0      16        0.0%
   274 ;;BITSFR16             0      0       0      17        0.0%
   275 ;;SFR16                0      0       0      17        0.0%
   276 ;;BITSFR17             0      0       0      18        0.0%
   277 ;;SFR17                0      0       0      18        0.0%
   278 ;;BITSFR18             0      0       0      19        0.0%
   279 ;;SFR18                0      0       0      19        0.0%
   280 ;;BITSFR19             0      0       0      20        0.0%
   281 ;;SFR19                0      0       0      20        0.0%
   282 ;;BITSFR20             0      0       0      21        0.0%
   283 ;;SFR20                0      0       0      21        0.0%
   284 ;;BITSFR21             0      0       0      22        0.0%
   285 ;;SFR21                0      0       0      22        0.0%
   286 ;;BITSFR22             0      0       0      23        0.0%
   287 ;;SFR22                0      0       0      23        0.0%
   288 ;;BITSFR23             0      0       0      24        0.0%
   289 ;;SFR23                0      0       0      24        0.0%
   290 ;;BITSFR24             0      0       0      25        0.0%
   291 ;;SFR24                0      0       0      25        0.0%
   292 ;;BITSFR25             0      0       0      26        0.0%
   293 ;;SFR25                0      0       0      26        0.0%
   294 ;;BITSFR26             0      0       0      27        0.0%
   295 ;;SFR26                0      0       0      27        0.0%
   296 ;;BITSFR27             0      0       0      28        0.0%
   297 ;;SFR27                0      0       0      28        0.0%
   298 ;;BITSFR28             0      0       0      29        0.0%
   299 ;;SFR28                0      0       0      29        0.0%
   300 ;;BITSFR29             0      0       0      30        0.0%
   301 ;;SFR29                0      0       0      30        0.0%
   302 ;;BITSFR30             0      0       0      31        0.0%
   303 ;;SFR30                0      0       0      31        0.0%
   304 ;;BITSFR31             0      0       0      32        0.0%
   305 ;;SFR31                0      0       0      32        0.0%
   306                           
   307                           
   308 ;; *************** function _main *****************
   309 ;; Defined at:
   310 ;;		line 236 in file "L210004 JCT.c"
   311 ;; Parameters:    Size  Location     Type
   312 ;;		None
   313 ;; Auto vars:     Size  Location     Type
   314 ;;  i               2    3[BANK0 ] unsigned int 
   315 ;;  i               2    5[BANK0 ] unsigned int 
   316 ;;  i               2    8[BANK0 ] unsigned int 
   317 ;;  q               2    1[BANK0 ] unsigned int 
   318 ;;  c               1    7[BANK0 ] unsigned char 
   319 ;;  echo            1    0[BANK0 ] unsigned char 
   320 ;; Return value:  Size  Location     Type
   321 ;;		None               void
   322 ;; Registers used:
   323 ;;		wreg, fsr1l, fsr1h, status,2, status,0, pclath, cstack
   324 ;; Tracked objects:
   325 ;;		On entry : 17F/0
   326 ;;		On exit  : 1F/2
   327 ;;		Unchanged: 0/0
   328 ;; Data sizes:     COMMON   BANK0   BANK1   BANK2
   329 ;;      Params:         0       0       0       0
   330 ;;      Locals:         0      10       0       0
   331 ;;      Temps:          0       0       0       0
   332 ;;      Totals:         0      10       0       0
   333 ;;Total ram usage:       10 bytes
   334 ;; Hardware stack levels required when called:    3
   335 ;; This function calls:
   336 ;;		_getch
   337 ;;		_putch
   338 ;;		_jct_massage_on
   339 ;;		_jct_massage_off
   340 ;;		_jct_massage_reset
   341 ;; This function is called by:
   342 ;;		Startup code after reset
   343 ;; This function uses a non-reentrant model
   344 ;;
   345  03E6                     _main:	
   346                           
   347                           ;L210004 JCT.c: 238: OSCCON = 0b01101000;
   348                           
   349                           ; Regs used in _main: [wreg+fsr1l-status,0+pclath+cstack]
   350  03E6  3068               	movlw	104
   351  03E7  0021               	movlb	1	; select bank1
   352  03E8  0099               	movwf	25	;volatile
   353  03E9  3019               	movlw	25
   354                           
   355                           ;L210004 JCT.c: 239: TRISC7 = 1; TRISC6 = 1; SPBRG = ((int)(4000000L/(16UL * 9600) -1));
      +                           RCSTA = (0|0x90); TXSTA = (0x4|0|0x20);
   356  03EA  178E               	bsf	14,7
   357  03EB  170E               	bsf	14,6
   358  03EC  0023               	movlb	3	; select bank3
   359  03ED  009B               	movwf	27	;volatile
   360  03EE  3090               	movlw	144
   361  03EF  009D               	movwf	29	;volatile
   362  03F0  3024               	movlw	36
   363  03F1  009E               	movwf	30	;volatile
   364                           
   365                           ;L210004 JCT.c: 243: TRISA = 0b01000000;
   366  03F2  3040               	movlw	64
   367  03F3  0021               	movlb	1	; select bank1
   368  03F4  008C               	movwf	12	;volatile
   369                           
   370                           ;L210004 JCT.c: 252: ANSELA = 0b00000000;
   371  03F5  0023               	movlb	3	; select bank3
   372  03F6  018C               	clrf	12	;volatile
   373                           
   374                           ;L210004 JCT.c: 254: TRISB = 0b11100001;
   375  03F7  30E1               	movlw	225
   376  03F8  0021               	movlb	1	; select bank1
   377  03F9  008D               	movwf	13	;volatile
   378                           
   379                           ;L210004 JCT.c: 263: ANSELB = 0b00000000;
   380  03FA  0023               	movlb	3	; select bank3
   381  03FB  018D               	clrf	13	;volatile
   382                           
   383                           ;L210004 JCT.c: 265: TRISC = 0b10111111;
   384  03FC  30BF               	movlw	191
   385  03FD  0021               	movlb	1	; select bank1
   386  03FE  008E               	movwf	14	;volatile
   387                           
   388                           ;L210004 JCT.c: 277: INTCON = 0b10100000;
   389  03FF  30A0               	movlw	160
   390  0400  008B               	movwf	11	;volatile
   391                           
   392                           ;L210004 JCT.c: 288: BAUDCON = 0b00000000;
   393  0401  0023               	movlb	3	; select bank3
   394  0402  019F               	clrf	31	;volatile
   395                           
   396                           ;L210004 JCT.c: 289: SPBRGL = 0x0C;
   397  0403  300C               	movlw	12
   398  0404  009B               	movwf	27	;volatile
   399                           
   400                           ;L210004 JCT.c: 290: SPBRGH = 0b00000000;
   401  0405  019C               	clrf	28	;volatile
   402                           
   403                           ;L210004 JCT.c: 291: OPTION_REG = 0b00001000;
   404  0406  3008               	movlw	8
   405  0407  0021               	movlb	1	; select bank1
   406  0408  0095               	movwf	21	;volatile
   407                           
   408                           ;L210004 JCT.c: 292: WPUB = 0b00000000;
   409  0409  0024               	movlb	4	; select bank4
   410  040A  018D               	clrf	13	;volatile
   411                           
   412                           ;L210004 JCT.c: 293: GIE = 1;
   413  040B  178B               	bsf	11,7
   414                           
   415                           ;L210004 JCT.c: 294: TMR0IE = 1;
   416  040C  168B               	bsf	11,5
   417                           
   418                           ;L210004 JCT.c: 296: LATA = 0x00;
   419  040D  0022               	movlb	2	; select bank2
   420  040E  018C               	clrf	12	;volatile
   421                           
   422                           ;L210004 JCT.c: 297: LATB = 0x00;
   423  040F  018D               	clrf	13	;volatile
   424                           
   425                           ;L210004 JCT.c: 298: LATC = 0x00;
   426  0410  018E               	clrf	14	;volatile
   427  0411                     l8929:	
   428                           
   429                           ;L210004 JCT.c: 301: bool echo = 1;
   430  0411  0020               	movlb	0	; select bank0
   431  0412  01C4               	clrf	main@echo
   432  0413  0AC4               	incf	main@echo,f
   433  0414                     l8931:	
   434                           
   435                           ;L210004 JCT.c: 305: last_rc[0] = getch();
   436  0414  2605  3183         	fcall	_getch
   437  0416  0020               	movlb	0	; select bank0
   438  0417  00A0               	movwf	_last_rc	;volatile
   439                           
   440                           ;L210004 JCT.c: 306: if(last_rc[0] == '?'){
   441  0418  3A3F               	xorlw	63
   442  0419  1D03               	skipz
   443  041A  2C39               	goto	l8957
   444  041B                     l8937:	
   445  041B  3021               	movlw	33
   446                           
   447                           ;L210004 JCT.c: 308: q = 0;
   448  041C  01C5               	clrf	main@q
   449  041D  01C6               	clrf	main@q+1
   450                           
   451                           ;L210004 JCT.c: 309: putch('!');
   452  041E  2624  3183         	fcall	_putch
   453                           
   454                           ;L210004 JCT.c: 310: c = getch();
   455  0420  2605  3183         	fcall	_getch
   456  0422  0020               	movlb	0	; select bank0
   457  0423  00CB               	movwf	main@c
   458                           
   459                           ;L210004 JCT.c: 311: if(c == '~'){
   460  0424  3A7E               	xorlw	126
   461  0425  1D03               	skipz
   462  0426  2C3C               	goto	l8959
   463                           
   464                           ;L210004 JCT.c: 313: for(unsigned int i = 0; i < (sizeof(last_rc)/sizeof((last_rc)[0]));
      +                           ++i){
   465  0427  01C7               	clrf	main@i
   466  0428  01C8               	clrf	main@i+1
   467  0429                     l8951:	
   468                           
   469                           ;L210004 JCT.c: 314: last_rc[i] = 0;
   470  0429  0847               	movf	main@i,w
   471  042A  3E20               	addlw	_last_rc& (0+255)
   472  042B  0086               	movwf	6
   473  042C  0187               	clrf	7
   474  042D  0181               	clrf	1
   475  042E  0AC7               	incf	main@i,f
   476  042F  1903               	skipnz
   477  0430  0AC8               	incf	main@i+1,f
   478  0431  3000               	movlw	0
   479  0432  0248               	subwf	main@i+1,w
   480  0433  3005               	movlw	5
   481  0434  1903               	skipnz
   482  0435  0247               	subwf	main@i,w
   483  0436  1803               	btfsc	3,0
   484  0437  2C3C               	goto	l8959
   485  0438  2C29               	goto	l8951
   486  0439                     l8957:	
   487                           
   488                           ;L210004 JCT.c: 318: else{
   489                           ;L210004 JCT.c: 319: q = 1;
   490  0439  01C5               	clrf	main@q
   491  043A  0AC5               	incf	main@q,f
   492  043B  01C6               	clrf	main@q+1
   493  043C                     l8959:	
   494                           
   495                           ;L210004 JCT.c: 320: }
   496                           ;L210004 JCT.c: 322: for(unsigned int i = q; i < (sizeof(last_rc)/sizeof((last_rc)[0]));
      +                           ++i){
   497  043C  0846               	movf	main@q+1,w
   498  043D  00CD               	movwf	main@i_3031+1
   499  043E  0845               	movf	main@q,w
   500  043F  00CC               	movwf	main@i_3031
   501  0440                     l8961:	
   502  0440  3000               	movlw	0
   503  0441  024D               	subwf	main@i_3031+1,w
   504  0442  3005               	movlw	5
   505  0443  1903               	skipnz
   506  0444  024C               	subwf	main@i_3031,w
   507  0445  1803               	btfsc	3,0
   508  0446  2C5B               	goto	l8975
   509                           
   510                           ;L210004 JCT.c: 323: last_rc[i] = getch();
   511  0447  084C               	movf	main@i_3031,w
   512  0448  3E20               	addlw	_last_rc& (0+255)
   513  0449  0086               	movwf	6
   514  044A  0187               	clrf	7
   515  044B  2605  3183         	fcall	_getch
   516  044D  0081               	movwf	1
   517                           
   518                           ;L210004 JCT.c: 324: if(last_rc[i] == '?'){
   519  044E  0020               	movlb	0	; select bank0
   520  044F  084C               	movf	main@i_3031,w
   521  0450  3E20               	addlw	_last_rc& (0+255)
   522  0451  0086               	movwf	6
   523  0452  0187               	clrf	7
   524  0453  0801               	movf	1,w
   525  0454  3A3F               	xorlw	63
   526  0455  1903               	btfsc	3,2
   527  0456  2C1B               	goto	l8937
   528  0457  0ACC               	incf	main@i_3031,f
   529  0458  1903               	skipnz
   530  0459  0ACD               	incf	main@i_3031+1,f
   531  045A  2C40               	goto	l8961
   532  045B                     l8975:	
   533                           
   534                           ;L210004 JCT.c: 326: }
   535                           ;L210004 JCT.c: 327: }
   536                           ;L210004 JCT.c: 328: for(unsigned int i = 0; i < (sizeof(last_rc)/sizeof((last_rc)[0]));
      +                           ++i){
   537  045B  01C9               	clrf	main@i_3032
   538  045C  01CA               	clrf	main@i_3032+1
   539  045D                     l8981:	
   540                           
   541                           ;L210004 JCT.c: 329: putch(last_rc[i]);
   542  045D  0849               	movf	main@i_3032,w
   543  045E  3E20               	addlw	_last_rc& (0+255)
   544  045F  0086               	movwf	6
   545  0460  0187               	clrf	7
   546  0461  0801               	movf	1,w
   547  0462  2624  3183         	fcall	_putch
   548                           
   549                           ;L210004 JCT.c: 330: _delay((unsigned long)((5)*(4000000/4000000.0)));
   550  0464  2C65               	nop2	;2 cycle nop
   551  0465  2C66               	nop2	;2 cycle nop
   552  0466  0064               	clrwdt
   553  0467  0020               	movlb	0	; select bank0
   554  0468  0AC9               	incf	main@i_3032,f
   555  0469  1903               	skipnz
   556  046A  0ACA               	incf	main@i_3032+1,f
   557  046B  3000               	movlw	0
   558  046C  024A               	subwf	main@i_3032+1,w
   559  046D  3005               	movlw	5
   560  046E  1903               	skipnz
   561  046F  0249               	subwf	main@i_3032,w
   562  0470  1C03               	skipc
   563  0471  2C5D               	goto	l8981
   564                           
   565                           ;L210004 JCT.c: 331: }
   566                           ;L210004 JCT.c: 332: c = getch();
   567  0472  2605  3183         	fcall	_getch
   568  0474  0020               	movlb	0	; select bank0
   569  0475  00CB               	movwf	main@c
   570                           
   571                           ;L210004 JCT.c: 333: if(c == '?'){
   572  0476  3A3F               	xorlw	63
   573  0477  1903               	btfsc	3,2
   574  0478  2C1B               	goto	l8937
   575                           
   576                           ;L210004 JCT.c: 336: else if(c == '+'){
   577  0479  084B               	movf	main@c,w
   578  047A  3A2B               	xorlw	43
   579  047B  1D03               	skipz
   580  047C  2C80               	goto	l9003
   581                           
   582                           ;L210004 JCT.c: 337: rc = last_rc[0];
   583  047D  0820               	movf	_last_rc,w	;volatile
   584  047E  00BF               	movwf	_rc	;volatile
   585                           
   586                           ;L210004 JCT.c: 338: echo = 0;
   587  047F  01C4               	clrf	main@echo
   588  0480                     l9003:	
   589                           
   590                           ;L210004 JCT.c: 339: }
   591                           ;L210004 JCT.c: 340: }while(echo);
   592  0480  08C4               	movf	main@echo,f
   593  0481  1D03               	skipz
   594  0482  2C14               	goto	l8931
   595                           
   596                           ;L210004 JCT.c: 342: if(rc){
   597  0483  083F               	movf	_rc,w	;volatile
   598  0484  1903               	btfsc	3,2
   599  0485  2C8C               	goto	l9013
   600                           
   601                           ;L210004 JCT.c: 343: timer = 1;
   602  0486  01C1               	clrf	_timer	;volatile
   603  0487  0AC1               	incf	_timer,f	;volatile
   604                           
   605                           ;L210004 JCT.c: 344: if(rc != 'Y'){
   606  0488  083F               	movf	_rc,w
   607  0489  3A59               	xorlw	89
   608  048A  1D03               	btfss	3,2
   609                           
   610                           ;L210004 JCT.c: 345: vent_t = 0;
   611  048B  01C2               	clrf	_vent_t	;volatile
   612  048C                     l9013:	
   613                           
   614                           ;L210004 JCT.c: 346: }
   615                           ;L210004 JCT.c: 347: }
   616                           ;L210004 JCT.c: 348: if(OERR || FERR){
   617  048C  0023               	movlb	3	; select bank3
   618  048D  189D               	btfsc	29,1
   619  048E  2C91               	goto	l9017
   620  048F  1D1D               	btfss	29,2
   621  0490  2C99               	goto	l1915
   622  0491                     l9017:	
   623                           
   624                           ;L210004 JCT.c: 349: rc_error = RCSTA;
   625  0491  081D               	movf	29,w	;volatile
   626  0492  0020               	movlb	0	; select bank0
   627  0493  00C0               	movwf	_rc_error	;volatile
   628                           
   629                           ;L210004 JCT.c: 350: CREN = 0;
   630  0494  0023               	movlb	3	; select bank3
   631  0495  121D               	bcf	29,4
   632                           
   633                           ;L210004 JCT.c: 351: SPEN = 0;
   634  0496  139D               	bcf	29,7
   635                           
   636                           ;L210004 JCT.c: 352: CREN = 1;
   637  0497  161D               	bsf	29,4
   638                           
   639                           ;L210004 JCT.c: 353: SPEN = 1;
   640  0498  179D               	bsf	29,7
   641  0499                     l1915:	
   642                           
   643                           ;L210004 JCT.c: 354: }
   644                           ;L210004 JCT.c: 355: if(rc == 'Y'){
   645  0499  0020               	movlb	0	; select bank0
   646  049A  083F               	movf	_rc,w
   647  049B  3A59               	xorlw	89
   648  049C  1D03               	skipz
   649  049D  2CAC               	goto	l9043
   650                           
   651                           ;L210004 JCT.c: 356: LATB4 = 0;
   652  049E  0022               	movlb	2	; select bank2
   653                           
   654                           ;L210004 JCT.c: 357: LATB3 = 0;
   655                           
   656                           ;L210004 JCT.c: 358: LATB1 = 0;
   657                           
   658                           ;L210004 JCT.c: 359: LATB2 = 0;
   659                           
   660                           ;L210004 JCT.c: 360: if(power){
   661  049F  2653  3183         	fcall	PL11	;call to abstracted procedure
   662  04A1  083D               	movf	_power,w	;volatile
   663  04A2  1D03               	skipz
   664  04A3  2CAC               	goto	l9043
   665                           
   666                           ;L210004 JCT.c: 363: else if(!vent_t){
   667  04A4  08C2               	movf	_vent_t,f
   668  04A5  1D03               	skipz
   669  04A6  2CAC               	goto	l9043
   670                           
   671                           ;L210004 JCT.c: 364: power = 0;
   672  04A7  01BD               	clrf	_power	;volatile
   673                           
   674                           ;L210004 JCT.c: 365: LATA1 = 0;
   675  04A8  0022               	movlb	2	; select bank2
   676  04A9  108C               	bcf	12,1
   677                           
   678                           ;L210004 JCT.c: 366: LATA7 = 0;
   679  04AA  138C               	bcf	12,7
   680                           
   681                           ;L210004 JCT.c: 367: LATA0 = 0;
   682  04AB  100C               	bcf	12,0
   683  04AC                     l9043:	
   684                           
   685                           ;L210004 JCT.c: 368: }
   686                           ;L210004 JCT.c: 369: }
   687                           ;L210004 JCT.c: 370: if(rc == 'A'){
   688  04AC  0020               	movlb	0	; select bank0
   689  04AD  083F               	movf	_rc,w
   690  04AE  3A41               	xorlw	65
   691  04AF  1D03               	skipz
   692  04B0  2CB7               	goto	l9051
   693                           
   694                           ;L210004 JCT.c: 371: jct_massage_on();
   695  04B1  262B  3183         	fcall	_jct_massage_on
   696                           
   697                           ;L210004 JCT.c: 372: m_flag = 1;
   698  04B3  01BC               	clrf	_m_flag	;volatile
   699  04B4  0ABC               	incf	_m_flag,f	;volatile
   700                           
   701                           ;L210004 JCT.c: 373: massage_timeout = 20*60*29.5;
   702  04B5  2642  3183         	fcall	PL7	;call to abstracted procedure
   703  04B7                     l9051:	
   704                           
   705                           ;L210004 JCT.c: 374: }
   706                           ;L210004 JCT.c: 375: if(rc == 'B'){
   707  04B7  083F               	movf	_rc,w
   708  04B8  3A42               	xorlw	66
   709  04B9  1D03               	skipz
   710  04BA  2CC5               	goto	l9061
   711                           
   712                           ;L210004 JCT.c: 376: jct_massage_off();
   713  04BB  260B  3183         	fcall	_jct_massage_off
   714                           
   715                           ;L210004 JCT.c: 377: jct_massage_reset();
   716  04BD  2616  3183         	fcall	_jct_massage_reset
   717                           
   718                           ;L210004 JCT.c: 378: heat_en = 0;
   719  04BF  01BA               	clrf	_heat_en	;volatile
   720                           
   721                           ;L210004 JCT.c: 379: LATA2 = 0;
   722  04C0  0022               	movlb	2	; select bank2
   723  04C1  110C               	bcf	12,2
   724                           
   725                           ;L210004 JCT.c: 380: vent_t = 1;
   726  04C2  0020               	movlb	0	; select bank0
   727  04C3  01C2               	clrf	_vent_t	;volatile
   728  04C4  0AC2               	incf	_vent_t,f	;volatile
   729  04C5                     l9061:	
   730                           
   731                           ;L210004 JCT.c: 381: }
   732                           ;L210004 JCT.c: 382: if(rc == 'C'){
   733  04C5  083F               	movf	_rc,w
   734  04C6  3A43               	xorlw	67
   735  04C7  1D03               	skipz
   736  04C8  2CE1               	goto	l9079
   737                           
   738                           ;L210004 JCT.c: 383: if(heat_en){
   739  04C9  083A               	movf	_heat_en,w	;volatile
   740  04CA  1903               	btfsc	3,2
   741  04CB  2CCF               	goto	l9071
   742                           
   743                           ;L210004 JCT.c: 384: LATA2 = 0;
   744  04CC  0022               	movlb	2	; select bank2
   745                           
   746                           ;L210004 JCT.c: 385: heat_en = 0;
   747                           
   748                           ;L210004 JCT.c: 386: heat_reset = 1;
   749  04CD  263C  3183         	fcall	PL6	;call to abstracted procedure
   750  04CF                     l9071:	
   751                           
   752                           ;L210004 JCT.c: 387: }
   753                           ;L210004 JCT.c: 388: if(last_rc[0] == 'D'){
   754  04CF  0820               	movf	_last_rc,w
   755  04D0  3A44               	xorlw	68
   756  04D1  1D03               	skipz
   757  04D2  2CD5               	goto	l1926
   758                           
   759                           ;L210004 JCT.c: 389: LATB3 = 0;
   760  04D3  0022               	movlb	2	; select bank2
   761  04D4  118D               	bcf	13,3
   762  04D5                     l1926:	
   763                           
   764                           ;L210004 JCT.c: 390: }
   765                           ;L210004 JCT.c: 391: LATB1 = 0;
   766  04D5  0022               	movlb	2	; select bank2
   767  04D6  108D               	bcf	13,1
   768                           
   769                           ;L210004 JCT.c: 392: LATB2 = 0;
   770  04D7  110D               	bcf	13,2
   771                           
   772                           ;L210004 JCT.c: 393: LATB3 = 0;
   773  04D8  118D               	bcf	13,3
   774                           
   775                           ;L210004 JCT.c: 394: LATB4 = 1;
   776  04D9  160D               	bsf	13,4
   777                           
   778                           ;L210004 JCT.c: 395: if(!m_flag){
   779  04DA  0020               	movlb	0	; select bank0
   780  04DB  08BC               	movf	_m_flag,f
   781  04DC  1D03               	skipz
   782  04DD  2CE1               	goto	l9079
   783                           
   784                           ;L210004 JCT.c: 396: LATA1 = 0;
   785  04DE  0022               	movlb	2	; select bank2
   786  04DF  108C               	bcf	12,1
   787                           
   788                           ;L210004 JCT.c: 397: LATA7 = 0;
   789  04E0  138C               	bcf	12,7
   790  04E1                     l9079:	
   791                           
   792                           ;L210004 JCT.c: 400: }
   793                           ;L210004 JCT.c: 401: }
   794                           ;L210004 JCT.c: 402: if(rc == 'D'){
   795  04E1  0020               	movlb	0	; select bank0
   796  04E2  083F               	movf	_rc,w
   797  04E3  3A44               	xorlw	68
   798  04E4  1D03               	skipz
   799  04E5  2CFE               	goto	l9097
   800                           
   801                           ;L210004 JCT.c: 403: if(heat_en){
   802  04E6  083A               	movf	_heat_en,w	;volatile
   803  04E7  1903               	btfsc	3,2
   804  04E8  2CEC               	goto	l9089
   805                           
   806                           ;L210004 JCT.c: 404: LATA2 = 0;
   807  04E9  0022               	movlb	2	; select bank2
   808                           
   809                           ;L210004 JCT.c: 405: heat_en = 0;
   810                           
   811                           ;L210004 JCT.c: 406: heat_reset = 1;
   812  04EA  263C  3183         	fcall	PL6	;call to abstracted procedure
   813  04EC                     l9089:	
   814                           
   815                           ;L210004 JCT.c: 407: }
   816                           ;L210004 JCT.c: 408: if(last_rc[0] == 'C'){
   817  04EC  0820               	movf	_last_rc,w
   818  04ED  3A43               	xorlw	67
   819  04EE  1D03               	skipz
   820  04EF  2CF2               	goto	l9093
   821                           
   822                           ;L210004 JCT.c: 409: LATB4 = 0;
   823  04F0  0022               	movlb	2	; select bank2
   824  04F1  120D               	bcf	13,4
   825  04F2                     l9093:	
   826                           
   827                           ;L210004 JCT.c: 410: }
   828                           ;L210004 JCT.c: 411: if(!m_flag){
   829  04F2  0020               	movlb	0	; select bank0
   830  04F3  08BC               	movf	_m_flag,f
   831  04F4  1D03               	skipz
   832  04F5  2CF9               	goto	l1931
   833                           
   834                           ;L210004 JCT.c: 412: LATA1 = 0;
   835  04F6  0022               	movlb	2	; select bank2
   836  04F7  108C               	bcf	12,1
   837                           
   838                           ;L210004 JCT.c: 413: LATA7 = 0;
   839  04F8  138C               	bcf	12,7
   840  04F9                     l1931:	
   841                           
   842                           ;L210004 JCT.c: 415: }
   843                           ;L210004 JCT.c: 416: LATB1 = 0;
   844  04F9  0022               	movlb	2	; select bank2
   845  04FA  108D               	bcf	13,1
   846                           
   847                           ;L210004 JCT.c: 417: LATB4 = 0;
   848  04FB  120D               	bcf	13,4
   849                           
   850                           ;L210004 JCT.c: 418: LATB3 = 1;
   851  04FC  158D               	bsf	13,3
   852                           
   853                           ;L210004 JCT.c: 419: LATB2 = 1;
   854  04FD  150D               	bsf	13,2
   855  04FE                     l9097:	
   856                           
   857                           ;L210004 JCT.c: 420: }
   858                           ;L210004 JCT.c: 421: if(rc == 'E'){
   859  04FE  0020               	movlb	0	; select bank0
   860  04FF  083F               	movf	_rc,w
   861  0500  3A45               	xorlw	69
   862  0501  1D03               	skipz
   863  0502  2D0C               	goto	l9107
   864                           
   865                           ;L210004 JCT.c: 422: LATB4 = 0;
   866  0503  0022               	movlb	2	; select bank2
   867                           
   868                           ;L210004 JCT.c: 423: LATB3 = 0;
   869                           
   870                           ;L210004 JCT.c: 424: LATB1 = 0;
   871                           
   872                           ;L210004 JCT.c: 425: LATB2 = 0;
   873                           
   874                           ;L210004 JCT.c: 426: if(heat_reset){
   875  0504  2653  3183         	fcall	PL11	;call to abstracted procedure
   876  0506  083B               	movf	_heat_reset,w	;volatile
   877  0507  1903               	btfsc	3,2
   878  0508  2D0C               	goto	l9107
   879                           
   880                           ;L210004 JCT.c: 427: LATA2 = 1;
   881  0509  0022               	movlb	2	; select bank2
   882                           
   883                           ;L210004 JCT.c: 428: heat_en = 1;
   884                           
   885                           ;L210004 JCT.c: 429: heat_reset = 0;
   886  050A  2647  3183         	fcall	PL9	;call to abstracted procedure
   887  050C                     l9107:	
   888                           
   889                           ;L210004 JCT.c: 430: }
   890                           ;L210004 JCT.c: 431: }
   891                           ;L210004 JCT.c: 432: if(rc == 'F'){
   892  050C  083F               	movf	_rc,w
   893  050D  3A46               	xorlw	70
   894  050E  1D03               	skipz
   895  050F  2D28               	goto	l9125
   896                           
   897                           ;L210004 JCT.c: 433: if(heat_en){
   898  0510  083A               	movf	_heat_en,w	;volatile
   899  0511  1903               	btfsc	3,2
   900  0512  2D16               	goto	l9117
   901                           
   902                           ;L210004 JCT.c: 434: LATA2 = 0;
   903  0513  0022               	movlb	2	; select bank2
   904                           
   905                           ;L210004 JCT.c: 435: heat_en = 0;
   906                           
   907                           ;L210004 JCT.c: 436: heat_reset = 1;
   908  0514  263C  3183         	fcall	PL6	;call to abstracted procedure
   909  0516                     l9117:	
   910                           
   911                           ;L210004 JCT.c: 437: }
   912                           ;L210004 JCT.c: 438: if(last_rc[0] == 'G'){
   913  0516  0820               	movf	_last_rc,w
   914  0517  3A47               	xorlw	71
   915  0518  1D03               	skipz
   916  0519  2D1C               	goto	l9121
   917                           
   918                           ;L210004 JCT.c: 439: LATB2 = 0;
   919  051A  0022               	movlb	2	; select bank2
   920  051B  110D               	bcf	13,2
   921  051C                     l9121:	
   922                           
   923                           ;L210004 JCT.c: 440: }
   924                           ;L210004 JCT.c: 441: if(!m_flag){
   925  051C  0020               	movlb	0	; select bank0
   926  051D  08BC               	movf	_m_flag,f
   927  051E  1D03               	skipz
   928  051F  2D23               	goto	l1937
   929                           
   930                           ;L210004 JCT.c: 442: LATA1 = 0;
   931  0520  0022               	movlb	2	; select bank2
   932  0521  108C               	bcf	12,1
   933                           
   934                           ;L210004 JCT.c: 443: LATA7 = 0;
   935  0522  138C               	bcf	12,7
   936  0523                     l1937:	
   937                           
   938                           ;L210004 JCT.c: 445: }
   939                           ;L210004 JCT.c: 446: LATB1 = 1;
   940  0523  0022               	movlb	2	; select bank2
   941  0524  148D               	bsf	13,1
   942                           
   943                           ;L210004 JCT.c: 447: LATB4 = 0;
   944  0525  120D               	bcf	13,4
   945                           
   946                           ;L210004 JCT.c: 448: LATB2 = 0;
   947  0526  110D               	bcf	13,2
   948                           
   949                           ;L210004 JCT.c: 449: LATB3 = 0;
   950  0527  118D               	bcf	13,3
   951  0528                     l9125:	
   952                           
   953                           ;L210004 JCT.c: 450: }
   954                           ;L210004 JCT.c: 451: if(rc == 'G'){
   955  0528  0020               	movlb	0	; select bank0
   956  0529  083F               	movf	_rc,w
   957  052A  3A47               	xorlw	71
   958  052B  1D03               	skipz
   959  052C  2D45               	goto	l9143
   960                           
   961                           ;L210004 JCT.c: 452: if(heat_en){
   962  052D  083A               	movf	_heat_en,w	;volatile
   963  052E  1903               	btfsc	3,2
   964  052F  2D33               	goto	l9135
   965                           
   966                           ;L210004 JCT.c: 453: LATA2 = 0;
   967  0530  0022               	movlb	2	; select bank2
   968                           
   969                           ;L210004 JCT.c: 454: heat_en = 0;
   970                           
   971                           ;L210004 JCT.c: 455: heat_reset = 1;
   972  0531  263C  3183         	fcall	PL6	;call to abstracted procedure
   973  0533                     l9135:	
   974                           
   975                           ;L210004 JCT.c: 456: }
   976                           ;L210004 JCT.c: 457: if(last_rc[0] == 'F'){
   977  0533  0820               	movf	_last_rc,w
   978  0534  3A46               	xorlw	70
   979  0535  1D03               	skipz
   980  0536  2D39               	goto	l9139
   981                           
   982                           ;L210004 JCT.c: 458: LATB1 = 0;
   983  0537  0022               	movlb	2	; select bank2
   984  0538  108D               	bcf	13,1
   985  0539                     l9139:	
   986                           
   987                           ;L210004 JCT.c: 459: }
   988                           ;L210004 JCT.c: 460: if(!m_flag){
   989  0539  0020               	movlb	0	; select bank0
   990  053A  08BC               	movf	_m_flag,f
   991  053B  1D03               	skipz
   992  053C  2D40               	goto	l1941
   993                           
   994                           ;L210004 JCT.c: 461: LATA1 = 0;
   995  053D  0022               	movlb	2	; select bank2
   996  053E  108C               	bcf	12,1
   997                           
   998                           ;L210004 JCT.c: 462: LATA7 = 0;
   999  053F  138C               	bcf	12,7
  1000  0540                     l1941:	
  1001                           
  1002                           ;L210004 JCT.c: 464: }
  1003                           ;L210004 JCT.c: 465: LATB1 = 0;
  1004  0540  0022               	movlb	2	; select bank2
  1005  0541  108D               	bcf	13,1
  1006                           
  1007                           ;L210004 JCT.c: 466: LATB4 = 0;
  1008  0542  120D               	bcf	13,4
  1009                           
  1010                           ;L210004 JCT.c: 467: LATB2 = 1;
  1011  0543  150D               	bsf	13,2
  1012                           
  1013                           ;L210004 JCT.c: 468: LATB3 = 0;
  1014  0544  118D               	bcf	13,3
  1015  0545                     l9143:	
  1016                           
  1017                           ;L210004 JCT.c: 469: }
  1018                           ;L210004 JCT.c: 470: if(rc == 'H'){
  1019  0545  0020               	movlb	0	; select bank0
  1020  0546  083F               	movf	_rc,w
  1021  0547  3A48               	xorlw	72
  1022  0548  1D03               	skipz
  1023  0549  2D54               	goto	l9153
  1024                           
  1025                           ;L210004 JCT.c: 471: LATB1 = 0;
  1026  054A  0022               	movlb	2	; select bank2
  1027  054B  108D               	bcf	13,1
  1028                           
  1029                           ;L210004 JCT.c: 472: LATB2 = 0;
  1030  054C  110D               	bcf	13,2
  1031                           
  1032                           ;L210004 JCT.c: 473: if(heat_reset){
  1033  054D  0020               	movlb	0	; select bank0
  1034  054E  083B               	movf	_heat_reset,w	;volatile
  1035  054F  1903               	btfsc	3,2
  1036  0550  2D54               	goto	l9153
  1037                           
  1038                           ;L210004 JCT.c: 474: LATA2 = 1;
  1039  0551  0022               	movlb	2	; select bank2
  1040                           
  1041                           ;L210004 JCT.c: 475: heat_en = 1;
  1042                           
  1043                           ;L210004 JCT.c: 476: heat_reset = 0;
  1044  0552  2647  3183         	fcall	PL9	;call to abstracted procedure
  1045  0554                     l9153:	
  1046                           
  1047                           ;L210004 JCT.c: 477: }
  1048                           ;L210004 JCT.c: 478: }
  1049                           ;L210004 JCT.c: 479: if(rc == 'I'){
  1050  0554  083F               	movf	_rc,w
  1051  0555  3A49               	xorlw	73
  1052  0556  1D03               	skipz
  1053  0557  2D6C               	goto	l9183
  1054                           
  1055                           ;L210004 JCT.c: 480: if(last_rc[0] == 'J'){
  1056  0558  0820               	movf	_last_rc,w
  1057  0559  3A4A               	xorlw	74
  1058  055A  1903               	btfsc	3,2
  1059  055B  2D6C               	goto	l9183
  1060                           
  1061                           ;L210004 JCT.c: 482: else{
  1062                           ;L210004 JCT.c: 483: jct_massage_off();
  1063  055C  260B  3183         	fcall	_jct_massage_off
  1064                           
  1065                           ;L210004 JCT.c: 484: jct_massage_reset();
  1066  055E  2616  3183         	fcall	_jct_massage_reset
  1067                           
  1068                           ;L210004 JCT.c: 486: LATB1 = 0;
  1069                           
  1070                           ;L210004 JCT.c: 487: LATB4 = 0;
  1071                           
  1072                           ;L210004 JCT.c: 488: LATB2 = 0;
  1073                           
  1074                           ;L210004 JCT.c: 489: LATB3 = 0;
  1075  0560  264D  3183         	fcall	PL10	;call to abstracted procedure
  1076                           
  1077                           ;L210004 JCT.c: 490: LATA1 = 1;
  1078  0562  148C               	bsf	12,1
  1079                           
  1080                           ;L210004 JCT.c: 491: LATA7 = 1;
  1081  0563  178C               	bsf	12,7
  1082                           
  1083                           ;L210004 JCT.c: 492: LATA0 = 1;
  1084  0564  140C               	bsf	12,0
  1085                           
  1086                           ;L210004 JCT.c: 493: if(heat_en){
  1087  0565  0020               	movlb	0	; select bank0
  1088  0566  083A               	movf	_heat_en,w	;volatile
  1089  0567  1903               	btfsc	3,2
  1090  0568  2D6C               	goto	l9183
  1091                           
  1092                           ;L210004 JCT.c: 494: LATA2 = 0;
  1093  0569  0022               	movlb	2	; select bank2
  1094                           
  1095                           ;L210004 JCT.c: 495: heat_en = 0;
  1096                           
  1097                           ;L210004 JCT.c: 496: heat_reset = 1;
  1098  056A  263C  3183         	fcall	PL6	;call to abstracted procedure
  1099  056C                     l9183:	
  1100                           
  1101                           ;L210004 JCT.c: 497: }
  1102                           ;L210004 JCT.c: 498: }
  1103                           ;L210004 JCT.c: 499: }
  1104                           ;L210004 JCT.c: 500: if(rc == 'J'){
  1105  056C  083F               	movf	_rc,w
  1106  056D  3A4A               	xorlw	74
  1107  056E  1D03               	skipz
  1108  056F  2D87               	goto	l9215
  1109                           
  1110                           ;L210004 JCT.c: 501: if(last_rc[0] == 'I'){
  1111  0570  0820               	movf	_last_rc,w
  1112  0571  3A49               	xorlw	73
  1113  0572  1903               	btfsc	3,2
  1114  0573  2D87               	goto	l9215
  1115                           
  1116                           ;L210004 JCT.c: 503: else{
  1117                           ;L210004 JCT.c: 504: jct_massage_off();
  1118  0574  260B  3183         	fcall	_jct_massage_off
  1119                           
  1120                           ;L210004 JCT.c: 505: jct_massage_reset();
  1121  0576  2616  3183         	fcall	_jct_massage_reset
  1122                           
  1123                           ;L210004 JCT.c: 507: LATB1 = 0;
  1124                           
  1125                           ;L210004 JCT.c: 508: LATB4 = 0;
  1126                           
  1127                           ;L210004 JCT.c: 509: LATB2 = 0;
  1128                           
  1129                           ;L210004 JCT.c: 510: LATB3 = 0;
  1130  0578  264D  3183         	fcall	PL10	;call to abstracted procedure
  1131                           
  1132                           ;L210004 JCT.c: 511: power = 0;
  1133  057A  0020               	movlb	0	; select bank0
  1134  057B  01BD               	clrf	_power	;volatile
  1135                           
  1136                           ;L210004 JCT.c: 512: LATA1 = 0;
  1137  057C  0022               	movlb	2	; select bank2
  1138  057D  108C               	bcf	12,1
  1139                           
  1140                           ;L210004 JCT.c: 513: LATA7 = 0;
  1141  057E  138C               	bcf	12,7
  1142                           
  1143                           ;L210004 JCT.c: 514: LATA0 = 1;
  1144  057F  140C               	bsf	12,0
  1145                           
  1146                           ;L210004 JCT.c: 515: if(heat_en){
  1147  0580  0020               	movlb	0	; select bank0
  1148  0581  083A               	movf	_heat_en,w	;volatile
  1149  0582  1903               	btfsc	3,2
  1150  0583  2D87               	goto	l9215
  1151                           
  1152                           ;L210004 JCT.c: 516: LATA2 = 0;
  1153  0584  0022               	movlb	2	; select bank2
  1154                           
  1155                           ;L210004 JCT.c: 517: heat_en = 0;
  1156                           
  1157                           ;L210004 JCT.c: 518: heat_reset = 1;
  1158  0585  263C  3183         	fcall	PL6	;call to abstracted procedure
  1159  0587                     l9215:	
  1160                           
  1161                           ;L210004 JCT.c: 519: }
  1162                           ;L210004 JCT.c: 520: }
  1163                           ;L210004 JCT.c: 521: }
  1164                           ;L210004 JCT.c: 522: if(rc == 'K'){
  1165  0587  083F               	movf	_rc,w
  1166  0588  3A4B               	xorlw	75
  1167  0589  1D03               	skipz
  1168  058A  2D99               	goto	l9241
  1169                           
  1170                           ;L210004 JCT.c: 523: GIE = 1;
  1171  058B  178B               	bsf	11,7
  1172                           
  1173                           ;L210004 JCT.c: 524: power = 0;
  1174  058C  01BD               	clrf	_power	;volatile
  1175                           
  1176                           ;L210004 JCT.c: 525: LATB1 = 0;
  1177                           
  1178                           ;L210004 JCT.c: 526: LATB4 = 0;
  1179                           
  1180                           ;L210004 JCT.c: 527: LATB2 = 0;
  1181                           
  1182                           ;L210004 JCT.c: 528: LATB3 = 0;
  1183  058D  264D  3183         	fcall	PL10	;call to abstracted procedure
  1184                           
  1185                           ;L210004 JCT.c: 529: LATA1 = 0;
  1186  058F  108C               	bcf	12,1
  1187                           
  1188                           ;L210004 JCT.c: 530: LATA7 = 0;
  1189  0590  138C               	bcf	12,7
  1190                           
  1191                           ;L210004 JCT.c: 531: LATA0 = 0;
  1192  0591  100C               	bcf	12,0
  1193                           
  1194                           ;L210004 JCT.c: 532: if(heat_reset){
  1195  0592  0020               	movlb	0	; select bank0
  1196  0593  083B               	movf	_heat_reset,w	;volatile
  1197  0594  1903               	btfsc	3,2
  1198  0595  2D99               	goto	l9241
  1199                           
  1200                           ;L210004 JCT.c: 533: LATA2 = 1;
  1201  0596  0022               	movlb	2	; select bank2
  1202                           
  1203                           ;L210004 JCT.c: 534: heat_en = 1;
  1204                           
  1205                           ;L210004 JCT.c: 535: heat_reset = 0;
  1206  0597  2647  3183         	fcall	PL9	;call to abstracted procedure
  1207  0599                     l9241:	
  1208                           
  1209                           ;L210004 JCT.c: 536: }
  1210                           ;L210004 JCT.c: 537: }
  1211                           ;L210004 JCT.c: 539: if(rc == 'L'){
  1212  0599  083F               	movf	_rc,w
  1213  059A  3A4C               	xorlw	76
  1214  059B  1D03               	skipz
  1215  059C  2DA1               	goto	l1954
  1216                           
  1217                           ;L210004 JCT.c: 540: zone0_en = 1;
  1218  059D  01D3               	clrf	_zone0_en	;volatile
  1219  059E  0AD3               	incf	_zone0_en,f	;volatile
  1220                           
  1221                           ;L210004 JCT.c: 541: massage_timeout = 20*60*29.5;
  1222  059F  2642  3183         	fcall	PL7	;call to abstracted procedure
  1223  05A1                     l1954:	
  1224                           
  1225                           ;L210004 JCT.c: 542: }
  1226                           ;L210004 JCT.c: 543: if(rc == 'M'){
  1227  05A1  083F               	movf	_rc,w
  1228  05A2  3A4D               	xorlw	77
  1229  05A3  1D03               	skipz
  1230  05A4  2DA8               	goto	l9251
  1231                           
  1232                           ;L210004 JCT.c: 544: zone0_en = 0;
  1233  05A5  01D3               	clrf	_zone0_en	;volatile
  1234                           
  1235                           ;L210004 JCT.c: 545: massage_timeout = 20*60*29.5;
  1236  05A6  2642  3183         	fcall	PL7	;call to abstracted procedure
  1237  05A8                     l9251:	
  1238                           
  1239                           ;L210004 JCT.c: 546: }
  1240                           ;L210004 JCT.c: 547: if(rc == 'N'){
  1241  05A8  083F               	movf	_rc,w
  1242  05A9  3A4E               	xorlw	78
  1243  05AA  1D03               	skipz
  1244  05AB  2DB0               	goto	l1956
  1245                           
  1246                           ;L210004 JCT.c: 548: zone1_en = 1;
  1247  05AC  01D4               	clrf	_zone1_en	;volatile
  1248  05AD  0AD4               	incf	_zone1_en,f	;volatile
  1249                           
  1250                           ;L210004 JCT.c: 549: massage_timeout = 20*60*29.5;
  1251  05AE  2642  3183         	fcall	PL7	;call to abstracted procedure
  1252  05B0                     l1956:	
  1253                           
  1254                           ;L210004 JCT.c: 550: }
  1255                           ;L210004 JCT.c: 551: if(rc == 'O'){
  1256  05B0  083F               	movf	_rc,w
  1257  05B1  3A4F               	xorlw	79
  1258  05B2  1D03               	skipz
  1259  05B3  2DB7               	goto	l9261
  1260                           
  1261                           ;L210004 JCT.c: 552: zone1_en = 0;
  1262  05B4  01D4               	clrf	_zone1_en	;volatile
  1263                           
  1264                           ;L210004 JCT.c: 553: massage_timeout = 20*60*29.5;
  1265  05B5  2642  3183         	fcall	PL7	;call to abstracted procedure
  1266  05B7                     l9261:	
  1267                           
  1268                           ;L210004 JCT.c: 554: }
  1269                           ;L210004 JCT.c: 555: if(rc == 'P'){
  1270  05B7  083F               	movf	_rc,w
  1271  05B8  3A50               	xorlw	80
  1272  05B9  1D03               	skipz
  1273  05BA  2DBF               	goto	l1958
  1274                           
  1275                           ;L210004 JCT.c: 556: zone2_en = 1;
  1276  05BB  01D5               	clrf	_zone2_en	;volatile
  1277  05BC  0AD5               	incf	_zone2_en,f	;volatile
  1278                           
  1279                           ;L210004 JCT.c: 557: massage_timeout = 20*60*29.5;
  1280  05BD  2642  3183         	fcall	PL7	;call to abstracted procedure
  1281  05BF                     l1958:	
  1282                           
  1283                           ;L210004 JCT.c: 558: }
  1284                           ;L210004 JCT.c: 559: if(rc == 'Q'){
  1285  05BF  083F               	movf	_rc,w
  1286  05C0  3A51               	xorlw	81
  1287  05C1  1D03               	skipz
  1288  05C2  2DC6               	goto	l9271
  1289                           
  1290                           ;L210004 JCT.c: 560: zone2_en = 0;
  1291  05C3  01D5               	clrf	_zone2_en	;volatile
  1292                           
  1293                           ;L210004 JCT.c: 561: massage_timeout = 20*60*29.5;
  1294  05C4  2642  3183         	fcall	PL7	;call to abstracted procedure
  1295  05C6                     l9271:	
  1296                           
  1297                           ;L210004 JCT.c: 562: }
  1298                           ;L210004 JCT.c: 563: if(rc == 'R'){
  1299  05C6  083F               	movf	_rc,w
  1300  05C7  3A52               	xorlw	82
  1301  05C8  1D03               	skipz
  1302  05C9  2DCE               	goto	l1960
  1303                           
  1304                           ;L210004 JCT.c: 564: zone3_en = 1;
  1305  05CA  01D6               	clrf	_zone3_en	;volatile
  1306  05CB  0AD6               	incf	_zone3_en,f	;volatile
  1307                           
  1308                           ;L210004 JCT.c: 565: massage_timeout = 20*60*29.5;
  1309  05CC  2642  3183         	fcall	PL7	;call to abstracted procedure
  1310  05CE                     l1960:	
  1311                           
  1312                           ;L210004 JCT.c: 566: }
  1313                           ;L210004 JCT.c: 567: if(rc == 'S'){
  1314  05CE  083F               	movf	_rc,w
  1315  05CF  3A53               	xorlw	83
  1316  05D0  1D03               	skipz
  1317  05D1  2DD5               	goto	l9281
  1318                           
  1319                           ;L210004 JCT.c: 568: zone3_en = 0;
  1320  05D2  01D6               	clrf	_zone3_en	;volatile
  1321                           
  1322                           ;L210004 JCT.c: 569: massage_timeout = 20*60*29.5;
  1323  05D3  2642  3183         	fcall	PL7	;call to abstracted procedure
  1324  05D5                     l9281:	
  1325                           
  1326                           ;L210004 JCT.c: 570: }
  1327                           ;L210004 JCT.c: 571: if(rc == 'T'){
  1328  05D5  083F               	movf	_rc,w
  1329  05D6  3A54               	xorlw	84
  1330  05D7  1D03               	skipz
  1331  05D8  2DDF               	goto	l9289
  1332                           
  1333                           ;L210004 JCT.c: 572: alt_en = 1;
  1334  05D9  01D2               	clrf	_alt_en	;volatile
  1335  05DA  0AD2               	incf	_alt_en,f	;volatile
  1336                           
  1337                           ;L210004 JCT.c: 573: wav_en = 0;
  1338  05DB  01C3               	clrf	_wav_en	;volatile
  1339                           
  1340                           ;L210004 JCT.c: 574: pul_en = 0;
  1341  05DC  01BE               	clrf	_pul_en	;volatile
  1342                           
  1343                           ;L210004 JCT.c: 575: massage_timeout = 20*60*29.5;
  1344  05DD  2642  3183         	fcall	PL7	;call to abstracted procedure
  1345  05DF                     l9289:	
  1346                           
  1347                           ;L210004 JCT.c: 576: }
  1348                           ;L210004 JCT.c: 577: if(rc == 'U'){
  1349  05DF  083F               	movf	_rc,w
  1350  05E0  3A55               	xorlw	85
  1351  05E1  1D03               	skipz
  1352  05E2  2DE9               	goto	l9297
  1353                           
  1354                           ;L210004 JCT.c: 578: alt_en = 0;
  1355  05E3  01D2               	clrf	_alt_en	;volatile
  1356                           
  1357                           ;L210004 JCT.c: 579: wav_en = 1;
  1358  05E4  01C3               	clrf	_wav_en	;volatile
  1359  05E5  0AC3               	incf	_wav_en,f	;volatile
  1360                           
  1361                           ;L210004 JCT.c: 580: pul_en = 0;
  1362  05E6  01BE               	clrf	_pul_en	;volatile
  1363                           
  1364                           ;L210004 JCT.c: 581: massage_timeout = 20*60*29.5;
  1365  05E7  2642  3183         	fcall	PL7	;call to abstracted procedure
  1366  05E9                     l9297:	
  1367                           
  1368                           ;L210004 JCT.c: 582: }
  1369                           ;L210004 JCT.c: 583: if(rc == 'V'){
  1370  05E9  083F               	movf	_rc,w
  1371  05EA  3A56               	xorlw	86
  1372  05EB  1D03               	skipz
  1373  05EC  2DF3               	goto	l9305
  1374                           
  1375                           ;L210004 JCT.c: 584: alt_en = 0;
  1376  05ED  01D2               	clrf	_alt_en	;volatile
  1377                           
  1378                           ;L210004 JCT.c: 585: wav_en = 0;
  1379  05EE  01C3               	clrf	_wav_en	;volatile
  1380                           
  1381                           ;L210004 JCT.c: 586: pul_en = 1;
  1382  05EF  01BE               	clrf	_pul_en	;volatile
  1383  05F0  0ABE               	incf	_pul_en,f	;volatile
  1384                           
  1385                           ;L210004 JCT.c: 587: massage_timeout = 20*60*29.5;
  1386  05F1  2642  3183         	fcall	PL7	;call to abstracted procedure
  1387  05F3                     l9305:	
  1388                           
  1389                           ;L210004 JCT.c: 588: }
  1390                           ;L210004 JCT.c: 589: if(rc == 'W'){
  1391  05F3  083F               	movf	_rc,w
  1392  05F4  3A57               	xorlw	87
  1393  05F5  1D03               	skipz
  1394  05F6  2DFD               	goto	l1965
  1395                           
  1396                           ;L210004 JCT.c: 590: heat_en = 1;
  1397  05F7  01BA               	clrf	_heat_en	;volatile
  1398  05F8  0ABA               	incf	_heat_en,f	;volatile
  1399                           
  1400                           ;L210004 JCT.c: 591: heat_timeout = 20*60*29.5;
  1401  05F9  3048               	movlw	72
  1402  05FA  00B0               	movwf	_heat_timeout	;volatile
  1403  05FB  308A               	movlw	138
  1404  05FC  00B1               	movwf	_heat_timeout+1	;volatile
  1405  05FD                     l1965:	
  1406                           
  1407                           ;L210004 JCT.c: 592: }
  1408                           ;L210004 JCT.c: 593: if(rc == 'X'){
  1409  05FD  083F               	movf	_rc,w
  1410  05FE  3A58               	xorlw	88
  1411  05FF  1D03               	skipz
  1412  0600  2C11               	goto	l8929
  1413                           
  1414                           ;L210004 JCT.c: 594: heat_en = 0;
  1415  0601  01BA               	clrf	_heat_en	;volatile
  1416                           
  1417                           ;L210004 JCT.c: 595: LATA2 = 0;
  1418  0602  0022               	movlb	2	; select bank2
  1419  0603  110C               	bcf	12,2
  1420  0604  2C11               	goto	l8929
  1421  0605                     __end_of_main:	
  1422  0605                     __ptext440:	
  1423 ;; =============== function _jct_massage_on ends ============
  1424                           
  1425                           
  1426 ;; *************** function _getch *****************
  1427 ;; Defined at:
  1428 ;;		line 99 in file "L210004 JCT.c"
  1429 ;; Parameters:    Size  Location     Type
  1430 ;;		None
  1431 ;; Auto vars:     Size  Location     Type
  1432 ;;		None
  1433 ;; Return value:  Size  Location     Type
  1434 ;;                  1    wreg      unsigned char 
  1435 ;; Registers used:
  1436 ;;		wreg
  1437 ;; Tracked objects:
  1438 ;;		On entry : 1C/0
  1439 ;;		On exit  : 1F/3
  1440 ;;		Unchanged: FFFE0/0
  1441 ;; Data sizes:     COMMON   BANK0   BANK1   BANK2
  1442 ;;      Params:         0       0       0       0
  1443 ;;      Locals:         0       0       0       0
  1444 ;;      Temps:          0       0       0       0
  1445 ;;      Totals:         0       0       0       0
  1446 ;;Total ram usage:        0 bytes
  1447 ;; Hardware stack levels used:    1
  1448 ;; Hardware stack levels required when called:    2
  1449 ;; This function calls:
  1450 ;;		Nothing
  1451 ;; This function is called by:
  1452 ;;		_main
  1453 ;; This function uses a non-reentrant model
  1454 ;;
  1455  0605                     _getch:	
  1456  0605                     l1887:	
  1457                           ;L210004 JCT.c: 102: while(!RCIF){
  1458                           
  1459                           ; Regs used in _getch: [wreg]
  1460                           
  1461  0605  0020               	movlb	0	; select bank0
  1462  0606  1E91               	btfss	17,5
  1463  0607  2E05               	goto	l1887
  1464                           
  1465                           ;L210004 JCT.c: 110: }
  1466                           ;L210004 JCT.c: 111: return RCREG;
  1467  0608  0023               	movlb	3	; select bank3
  1468  0609  0819               	movf	25,w	;volatile
  1469  060A  0008               	return
  1470  060B                     __end_of_getch:	
  1471  060B                     __ptext438:	
  1472 ;; =============== function _jct_massage_reset ends ============
  1473                           
  1474                           
  1475 ;; *************** function _jct_massage_off *****************
  1476 ;; Defined at:
  1477 ;;		line 2435 in file "L210004 JCT.c"
  1478 ;; Parameters:    Size  Location     Type
  1479 ;;		None
  1480 ;; Auto vars:     Size  Location     Type
  1481 ;;		None
  1482 ;; Return value:  Size  Location     Type
  1483 ;;		None               void
  1484 ;; Registers used:
  1485 ;;		status,2
  1486 ;; Tracked objects:
  1487 ;;		On entry : 1F/0
  1488 ;;		On exit  : 1F/2
  1489 ;;		Unchanged: FFFE0/0
  1490 ;; Data sizes:     COMMON   BANK0   BANK1   BANK2
  1491 ;;      Params:         0       0       0       0
  1492 ;;      Locals:         0       0       0       0
  1493 ;;      Temps:          0       0       0       0
  1494 ;;      Totals:         0       0       0       0
  1495 ;;Total ram usage:        0 bytes
  1496 ;; Hardware stack levels used:    1
  1497 ;; Hardware stack levels required when called:    2
  1498 ;; This function calls:
  1499 ;;		Nothing
  1500 ;; This function is called by:
  1501 ;;		_main
  1502 ;; This function uses a non-reentrant model
  1503 ;;
  1504  060B                     _jct_massage_off:	
  1505                           
  1506                           ;L210004 JCT.c: 2436: power = 0;
  1507                           
  1508                           ; Regs used in _jct_massage_off: [status,2]
  1509  060B  01BD               	clrf	_power	;volatile
  1510                           
  1511                           ;L210004 JCT.c: 2437: m_flag = 0;
  1512  060C  01BC               	clrf	_m_flag	;volatile
  1513                           
  1514                           ;L210004 JCT.c: 2438: LATA1 = 0;
  1515  060D  0022               	movlb	2	; select bank2
  1516  060E  108C               	bcf	12,1
  1517                           
  1518                           ;L210004 JCT.c: 2439: LATA0 = 0;
  1519  060F  100C               	bcf	12,0
  1520                           
  1521                           ;L210004 JCT.c: 2440: LATA7 = 0;
  1522  0610  138C               	bcf	12,7
  1523                           
  1524                           ;L210004 JCT.c: 2441: LATA0 = 0;
  1525  0611  100C               	bcf	12,0
  1526                           
  1527                           ;L210004 JCT.c: 2442: LATA5 = 0;
  1528  0612  128C               	bcf	12,5
  1529                           
  1530                           ;L210004 JCT.c: 2443: LATA4 = 0;
  1531  0613  120C               	bcf	12,4
  1532                           
  1533                           ;L210004 JCT.c: 2444: LATA3 = 0;
  1534  0614  118C               	bcf	12,3
  1535  0615  0008               	return
  1536  0616                     __end_of_jct_massage_off:	
  1537  0616                     __ptext437:	
  1538 ;; =============== function _main ends ============
  1539                           
  1540                           
  1541 ;; *************** function _jct_massage_reset *****************
  1542 ;; Defined at:
  1543 ;;		line 2447 in file "L210004 JCT.c"
  1544 ;; Parameters:    Size  Location     Type
  1545 ;;		None
  1546 ;; Auto vars:     Size  Location     Type
  1547 ;;		None
  1548 ;; Return value:  Size  Location     Type
  1549 ;;		None               void
  1550 ;; Registers used:
  1551 ;;		status,2
  1552 ;; Tracked objects:
  1553 ;;		On entry : 1F/2
  1554 ;;		On exit  : 1F/0
  1555 ;;		Unchanged: FFFE0/0
  1556 ;; Data sizes:     COMMON   BANK0   BANK1   BANK2
  1557 ;;      Params:         0       0       0       0
  1558 ;;      Locals:         0       0       0       0
  1559 ;;      Temps:          0       0       0       0
  1560 ;;      Totals:         0       0       0       0
  1561 ;;Total ram usage:        0 bytes
  1562 ;; Hardware stack levels used:    1
  1563 ;; Hardware stack levels required when called:    2
  1564 ;; This function calls:
  1565 ;;		Nothing
  1566 ;; This function is called by:
  1567 ;;		_main
  1568 ;; This function uses a non-reentrant model
  1569 ;;
  1570  0616                     _jct_massage_reset:	
  1571                           
  1572                           ;L210004 JCT.c: 2448: zone0_en = 0;
  1573                           
  1574                           ; Regs used in _jct_massage_reset: [status,2]
  1575  0616  0020               	movlb	0	; select bank0
  1576  0617  01D3               	clrf	_zone0_en	;volatile
  1577                           
  1578                           ;L210004 JCT.c: 2449: zone1_en = 0;
  1579  0618  01D4               	clrf	_zone1_en	;volatile
  1580                           
  1581                           ;L210004 JCT.c: 2450: zone2_en = 0;
  1582  0619  01D5               	clrf	_zone2_en	;volatile
  1583                           
  1584                           ;L210004 JCT.c: 2451: zone3_en = 0;
  1585  061A  01D6               	clrf	_zone3_en	;volatile
  1586                           
  1587                           ;L210004 JCT.c: 2452: a_count = 0;
  1588  061B  01AC               	clrf	_a_count	;volatile
  1589  061C  01AD               	clrf	_a_count+1	;volatile
  1590                           
  1591                           ;L210004 JCT.c: 2453: p_count = 0;
  1592  061D  01B4               	clrf	_p_count	;volatile
  1593  061E  01B5               	clrf	_p_count+1	;volatile
  1594                           
  1595                           ;L210004 JCT.c: 2454: w_count = 0;
  1596  061F  01F0               	clrf	_w_count	;volatile
  1597  0620  01F1               	clrf	_w_count+1	;volatile
  1598                           
  1599                           ;L210004 JCT.c: 2455: z_count = 0;
  1600  0621  01B8               	clrf	_z_count	;volatile
  1601  0622  01B9               	clrf	_z_count+1	;volatile
  1602  0623  0008               	return
  1603  0624                     __end_of_jct_massage_reset:	
  1604  0624                     __ptext441:	
  1605 ;; =============== function _getch ends ============
  1606                           
  1607                           
  1608 ;; *************** function _putch *****************
  1609 ;; Defined at:
  1610 ;;		line 83 in file "L210004 JCT.c"
  1611 ;; Parameters:    Size  Location     Type
  1612 ;;  byte            1    wreg     unsigned char 
  1613 ;; Auto vars:     Size  Location     Type
  1614 ;;  byte            1    1[COMMON] unsigned char 
  1615 ;; Return value:  Size  Location     Type
  1616 ;;		None               void
  1617 ;; Registers used:
  1618 ;;		wreg
  1619 ;; Tracked objects:
  1620 ;;		On entry : 1F/0
  1621 ;;		On exit  : 1F/3
  1622 ;;		Unchanged: FFFE0/0
  1623 ;; Data sizes:     COMMON   BANK0   BANK1   BANK2
  1624 ;;      Params:         0       0       0       0
  1625 ;;      Locals:         1       0       0       0
  1626 ;;      Temps:          0       0       0       0
  1627 ;;      Totals:         1       0       0       0
  1628 ;;Total ram usage:        1 bytes
  1629 ;; Hardware stack levels used:    1
  1630 ;; Hardware stack levels required when called:    2
  1631 ;; This function calls:
  1632 ;;		Nothing
  1633 ;; This function is called by:
  1634 ;;		_main
  1635 ;; This function uses a non-reentrant model
  1636 ;;
  1637  0624                     _putch:	
  1638                           
  1639                           ; Regs used in _putch: [wreg]
  1640                           ;putch@byte stored from wreg
  1641  0624  00F3               	movwf	putch@byte
  1642  0625                     l1881:	
  1643                           ;L210004 JCT.c: 86: while(!TXIF){
  1644                           
  1645  0625  1E11               	btfss	17,4
  1646  0626  2E25               	goto	l1881
  1647                           
  1648                           ;L210004 JCT.c: 94: }
  1649                           ;L210004 JCT.c: 95: TXREG = byte;
  1650  0627  0873               	movf	putch@byte,w
  1651  0628  0023               	movlb	3	; select bank3
  1652  0629  009A               	movwf	26	;volatile
  1653  062A  0008               	return
  1654  062B                     __end_of_putch:	
  1655  062B                     __ptext439:	
  1656 ;; =============== function _jct_massage_off ends ============
  1657                           
  1658                           
  1659 ;; *************** function _jct_massage_on *****************
  1660 ;; Defined at:
  1661 ;;		line 2423 in file "L210004 JCT.c"
  1662 ;; Parameters:    Size  Location     Type
  1663 ;;		None
  1664 ;; Auto vars:     Size  Location     Type
  1665 ;;		None
  1666 ;; Return value:  Size  Location     Type
  1667 ;;		None               void
  1668 ;; Registers used:
  1669 ;;		status,2
  1670 ;; Tracked objects:
  1671 ;;		On entry : 1F/0
  1672 ;;		On exit  : 1F/0
  1673 ;;		Unchanged: FFFE0/0
  1674 ;; Data sizes:     COMMON   BANK0   BANK1   BANK2
  1675 ;;      Params:         0       0       0       0
  1676 ;;      Locals:         0       0       0       0
  1677 ;;      Temps:          0       0       0       0
  1678 ;;      Totals:         0       0       0       0
  1679 ;;Total ram usage:        0 bytes
  1680 ;; Hardware stack levels used:    1
  1681 ;; Hardware stack levels required when called:    2
  1682 ;; This function calls:
  1683 ;;		Nothing
  1684 ;; This function is called by:
  1685 ;;		_main
  1686 ;; This function uses a non-reentrant model
  1687 ;;
  1688  062B                     _jct_massage_on:	
  1689                           
  1690                           ;L210004 JCT.c: 2424: power = 1;
  1691                           
  1692                           ; Regs used in _jct_massage_on: [status,2]
  1693  062B  01BD               	clrf	_power	;volatile
  1694  062C  0ABD               	incf	_power,f	;volatile
  1695                           
  1696                           ;L210004 JCT.c: 2425: zone0_en = 1;
  1697  062D  01D3               	clrf	_zone0_en	;volatile
  1698  062E  0AD3               	incf	_zone0_en,f	;volatile
  1699                           
  1700                           ;L210004 JCT.c: 2426: zone1_en = 1;
  1701  062F  01D4               	clrf	_zone1_en	;volatile
  1702  0630  0AD4               	incf	_zone1_en,f	;volatile
  1703                           
  1704                           ;L210004 JCT.c: 2427: zone2_en = 1;
  1705  0631  01D5               	clrf	_zone2_en	;volatile
  1706  0632  0AD5               	incf	_zone2_en,f	;volatile
  1707                           
  1708                           ;L210004 JCT.c: 2428: zone3_en = 1;
  1709  0633  01D6               	clrf	_zone3_en	;volatile
  1710  0634  0AD6               	incf	_zone3_en,f	;volatile
  1711                           
  1712                           ;L210004 JCT.c: 2429: alt_en = 1;
  1713  0635  01D2               	clrf	_alt_en	;volatile
  1714  0636  0AD2               	incf	_alt_en,f	;volatile
  1715                           
  1716                           ;L210004 JCT.c: 2430: wav_en = 0;
  1717  0637  01C3               	clrf	_wav_en	;volatile
  1718                           
  1719                           ;L210004 JCT.c: 2431: pul_en = 0;
  1720  0638  01BE               	clrf	_pul_en	;volatile
  1721                           
  1722                           ;L210004 JCT.c: 2432: m_flag = 1;
  1723  0639  01BC               	clrf	_m_flag	;volatile
  1724  063A  0ABC               	incf	_m_flag,f	;volatile
  1725  063B  0008               	return
  1726  063C                     __end_of_jct_massage_on:	
  1727  063C                     PL6:	
  1728  063C  110C               	bcf	12,2
  1729  063D  0020               	movlb	0	; select bank0
  1730  063E  01BA               	clrf	_heat_en	;volatile
  1731  063F  01BB               	clrf	_heat_reset	;volatile
  1732  0640  0ABB               	incf	_heat_reset,f	;volatile
  1733  0641  0008               	return
  1734  0642                     PL7:	
  1735  0642  3048               	movlw	72
  1736  0643  00B2               	movwf	_massage_timeout	;volatile
  1737  0644  308A               	movlw	138
  1738  0645  00B3               	movwf	_massage_timeout+1	;volatile
  1739  0646  0008               	return
  1740  0647                     PL9:	
  1741  0647  150C               	bsf	12,2
  1742  0648  0020               	movlb	0	; select bank0
  1743  0649  01BA               	clrf	_heat_en	;volatile
  1744  064A  0ABA               	incf	_heat_en,f	;volatile
  1745  064B  01BB               	clrf	_heat_reset	;volatile
  1746  064C  0008               	return
  1747  064D                     PL10:	
  1748  064D  0022               	movlb	2	; select bank2
  1749  064E  108D               	bcf	13,1
  1750  064F  120D               	bcf	13,4
  1751  0650  110D               	bcf	13,2
  1752  0651  118D               	bcf	13,3
  1753  0652  0008               	return
  1754  0653                     PL11:	
  1755  0653  120D               	bcf	13,4
  1756  0654  118D               	bcf	13,3
  1757  0655  108D               	bcf	13,1
  1758  0656  110D               	bcf	13,2
  1759  0657  0020               	movlb	0	; select bank0
  1760  0658  0008               	return
  1761                           
  1762                           	psect	bssCOMMON
  1763  0070                     __pbssCOMMON:	
  1764  0070                     _w_count:	
  1765  0070                     	ds	2
  1766                           
  1767                           	psect	bssBANK0
  1768  0020                     __pbssBANK0:	
  1769  0020                     _last_rc:	
  1770  0020                     	ds	5
  1771  0025                     _tx_char:	
  1772  0025                     	ds	5
  1773  002A                     _TimerReload:	
  1774  002A                     	ds	2
  1775  002C                     _a_count:	
  1776  002C                     	ds	2
  1777  002E                     _comm_timeout:	
  1778  002E                     	ds	2
  1779  0030                     _heat_timeout:	
  1780  0030                     	ds	2
  1781  0032                     _massage_timeout:	
  1782  0032                     	ds	2
  1783  0034                     _p_count:	
  1784  0034                     	ds	2
  1785  0036                     _pwm_count:	
  1786  0036                     	ds	2
  1787  0038                     _z_count:	
  1788  0038                     	ds	2
  1789  003A                     _heat_en:	
  1790  003A                     	ds	1
  1791  003B                     _heat_reset:	
  1792  003B                     	ds	1
  1793  003C                     _m_flag:	
  1794  003C                     	ds	1
  1795  003D                     _power:	
  1796  003D                     	ds	1
  1797  003E                     _pul_en:	
  1798  003E                     	ds	1
  1799  003F                     _rc:	
  1800  003F                     	ds	1
  1801  0040                     _rc_error:	
  1802  0040                     	ds	1
  1803  0041                     _timer:	
  1804  0041                     	ds	1
  1805  0042                     _vent_t:	
  1806  0042                     	ds	1
  1807  0043                     _wav_en:	
  1808  0043                     	ds	1
  1809                           
  1810                           	psect	dataBANK0
  1811  004E                     __pdataBANK0:	
  1812  004E                     _time_out:	
  1813  004E                     	ds	2
  1814  0050                     _vent_c:	
  1815  0050                     	ds	2
  1816  0052                     _alt_en:	
  1817  0052                     	ds	1
  1818  0053                     _zone0_en:	
  1819  0053                     	ds	1
  1820  0054                     _zone1_en:	
  1821  0054                     	ds	1
  1822  0055                     _zone2_en:	
  1823  0055                     	ds	1
  1824  0056                     _zone3_en:	
  1825  0056                     	ds	1
  1826                           
  1827                           	psect	clrtext
  1828  0672                     clear_ram:	
  1829                           ;	Called with FSR0 containing the base address, and
  1830                           ;	WREG with the size to clear
  1831                           
  1832  0672  0064               	clrwdt	;clear the watchdog before getting into this loop
  1833  0673                     clrloop:	
  1834  0673  0180               	clrf	0	;clear RAM location pointed to by FSR
  1835  0674  3101               	addfsr 0,1
  1836  0675  0B89               	decfsz	9,f	;Have we reached the end of clearing yet?
  1837  0676  2E73               	goto	clrloop	;have we reached the end yet?
  1838  0677  3400               	retlw	0	;all done for this memory range, return
  1839                           
  1840                           	psect	cstackCOMMON
  1841  0072                     __pcstackCOMMON:	
  1842  0072                     ?_jct_massage_on:	
  1843  0072                     ?_jct_massage_off:	
  1844                           ; 0 bytes @ 0x0
  1845                           
  1846  0072                     ?_jct_massage_reset:	
  1847                           ; 0 bytes @ 0x0
  1848                           
  1849  0072                     ?_alternate:	
  1850                           ; 0 bytes @ 0x0
  1851                           
  1852  0072                     ??_alternate:	
  1853                           ; 0 bytes @ 0x0
  1854                           
  1855  0072                     ?_wave:	
  1856                           ; 0 bytes @ 0x0
  1857                           
  1858  0072                     ??_wave:	
  1859                           ; 0 bytes @ 0x0
  1860                           
  1861  0072                     ?_pulse:	
  1862                           ; 0 bytes @ 0x0
  1863                           
  1864  0072                     ??_pulse:	
  1865                           ; 0 bytes @ 0x0
  1866                           
  1867  0072                     ?_putch:	
  1868                           ; 0 bytes @ 0x0
  1869                           
  1870  0072                     ?_main:	
  1871                           ; 0 bytes @ 0x0
  1872                           
  1873  0072                     ?_isr:	
  1874                           ; 0 bytes @ 0x0
  1875                           
  1876  0072                     ??_isr:	
  1877                           ; 0 bytes @ 0x0
  1878                           
  1879  0072                     ?i1_jct_massage_off:	
  1880                           ; 0 bytes @ 0x0
  1881                           
  1882  0072                     ??i1_jct_massage_off:	
  1883                           ; 0 bytes @ 0x0
  1884                           
  1885  0072                     ?i1_jct_massage_reset:	
  1886                           ; 0 bytes @ 0x0
  1887                           
  1888  0072                     ??i1_jct_massage_reset:	
  1889                           ; 0 bytes @ 0x0
  1890                           
  1891  0072                     ?_getch:	
  1892                           ; 0 bytes @ 0x0
  1893                           
  1894                           
  1895                           ; 1 bytes @ 0x0
  1896  0072                     	ds	1
  1897  0073                     ??_jct_massage_on:	
  1898  0073                     ??_jct_massage_off:	
  1899                           ; 0 bytes @ 0x1
  1900                           
  1901  0073                     ??_jct_massage_reset:	
  1902                           ; 0 bytes @ 0x1
  1903                           
  1904  0073                     ??_putch:	
  1905                           ; 0 bytes @ 0x1
  1906                           
  1907  0073                     ??_getch:	
  1908                           ; 0 bytes @ 0x1
  1909                           
  1910  0073                     putch@byte:	
  1911                           ; 0 bytes @ 0x1
  1912                           
  1913                           
  1914                           ; 1 bytes @ 0x1
  1915  0073                     	ds	1
  1916  0074                     ??_main:	
  1917                           
  1918                           	psect	cstackBANK0
  1919  0044                     __pcstackBANK0:	
  1920                           ; 0 bytes @ 0x2
  1921                           
  1922  0044                     main@echo:	
  1923                           
  1924                           ; 1 bytes @ 0x0
  1925  0044                     	ds	1
  1926  0045                     main@q:	
  1927                           
  1928                           ; 2 bytes @ 0x1
  1929  0045                     	ds	2
  1930  0047                     main@i:	
  1931                           
  1932                           ; 2 bytes @ 0x3
  1933  0047                     	ds	2
  1934  0049                     main@i_3032:	
  1935                           
  1936                           ; 2 bytes @ 0x5
  1937  0049                     	ds	2
  1938  004B                     main@c:	
  1939                           
  1940                           ; 1 bytes @ 0x7
  1941  004B                     	ds	1
  1942  004C                     main@i_3031:	
  1943                           
  1944                           ; 2 bytes @ 0x8
  1945  004C                     	ds	2
  1946                           
  1947                           	psect	intentry
  1948  0004                     __pintentry:	
  1949 ;; =============== function _putch ends ============
  1950                           
  1951                           
  1952 ;; *************** function _isr *****************
  1953 ;; Defined at:
  1954 ;;		line 600 in file "L210004 JCT.c"
  1955 ;; Parameters:    Size  Location     Type
  1956 ;;		None
  1957 ;; Auto vars:     Size  Location     Type
  1958 ;;		None
  1959 ;; Return value:  Size  Location     Type
  1960 ;;		None               void
  1961 ;; Registers used:
  1962 ;;		wreg, status,2, status,0, btemp+1, pclath, cstack
  1963 ;; Tracked objects:
  1964 ;;		On entry : 0/0
  1965 ;;		On exit  : 1F/0
  1966 ;;		Unchanged: FFE00/0
  1967 ;; Data sizes:     COMMON   BANK0   BANK1   BANK2
  1968 ;;      Params:         0       0       0       0
  1969 ;;      Locals:         0       0       0       0
  1970 ;;      Temps:          1       0       0       0
  1971 ;;      Totals:         1       0       0       0
  1972 ;;Total ram usage:        1 bytes
  1973 ;; Hardware stack levels used:    1
  1974 ;; Hardware stack levels required when called:    1
  1975 ;; This function calls:
  1976 ;;		i1_jct_massage_off
  1977 ;;		i1_jct_massage_reset
  1978 ;;		_alternate
  1979 ;;		_wave
  1980 ;;		_pulse
  1981 ;; This function is called by:
  1982 ;;		Interrupt level 1
  1983 ;; This function uses a non-reentrant model
  1984 ;;
  1985  0004                     _isr:	
  1986                           
  1987                           ; Regs used in _isr: [wreg+status,2+status,0+btemp+1+pclath+cstack]
  1988  0004  3180               	pagesel	$
  1989  0005  0020               	movlb	0	; select bank0
  1990  0006  087F               	movf	127,w
  1991  0007  00F2               	movwf	??_isr
  1992                           
  1993                           ;L210004 JCT.c: 601: if(TMR0IF){
  1994  0008  1D0B               	btfss	11,2
  1995  0009  28C0               	goto	i1l1998
  1996                           
  1997                           ;L210004 JCT.c: 602: time_out--;
  1998  000A  30FF               	movlw	-1
  1999  000B  07CE               	addwf	_time_out,f	;volatile
  2000  000C  1C03               	skipc
  2001  000D  03CF               	decf	_time_out+1,f	;volatile
  2002                           
  2003                           ;L210004 JCT.c: 603: if(!time_out){
  2004  000E  084F               	movf	_time_out+1,w	;volatile
  2005  000F  044E               	iorwf	_time_out,w	;volatile
  2006  0010  1D03               	skipz
  2007  0011  285A               	goto	i1l6783
  2008                           
  2009                           ;L210004 JCT.c: 604: time_out = 200;
  2010  0012  30C8               	movlw	200
  2011  0013  00CE               	movwf	_time_out	;volatile
  2012  0014  01CF               	clrf	_time_out+1	;volatile
  2013                           
  2014                           ;L210004 JCT.c: 605: if(massage_timeout){
  2015  0015  0833               	movf	_massage_timeout+1,w	;volatile
  2016  0016  0432               	iorwf	_massage_timeout,w	;volatile
  2017  0017  1903               	skipnz
  2018  0018  282B               	goto	i1l6761
  2019                           
  2020                           ;L210004 JCT.c: 606: massage_timeout--;
  2021  0019  30FF               	movlw	-1
  2022  001A  07B2               	addwf	_massage_timeout,f	;volatile
  2023  001B  1C03               	skipc
  2024  001C  03B3               	decf	_massage_timeout+1,f	;volatile
  2025                           
  2026                           ;L210004 JCT.c: 607: if(!massage_timeout){
  2027  001D  0833               	movf	_massage_timeout+1,w	;volatile
  2028  001E  0432               	iorwf	_massage_timeout,w	;volatile
  2029  001F  1D03               	skipz
  2030  0020  282B               	goto	i1l6761
  2031                           
  2032                           ;L210004 JCT.c: 608: power = 0;
  2033  0021  01BD               	clrf	_power	;volatile
  2034                           
  2035                           ;L210004 JCT.c: 609: jct_massage_off();
  2036  0022  3186  2667  3180   	fcall	i1_jct_massage_off
  2037                           
  2038                           ;L210004 JCT.c: 610: jct_massage_reset();
  2039  0025  3186  2659  3180   	fcall	i1_jct_massage_reset
  2040                           
  2041                           ;L210004 JCT.c: 611: timer = 0;
  2042  0028  01C1               	clrf	_timer	;volatile
  2043                           
  2044                           ;L210004 JCT.c: 612: vent_t = 1;
  2045  0029  01C2               	clrf	_vent_t	;volatile
  2046  002A  0AC2               	incf	_vent_t,f	;volatile
  2047  002B                     i1l6761:	
  2048                           
  2049                           ;L210004 JCT.c: 613: }
  2050                           ;L210004 JCT.c: 614: }
  2051                           ;L210004 JCT.c: 615: if(heat_timeout){
  2052  002B  0831               	movf	_heat_timeout+1,w	;volatile
  2053  002C  0430               	iorwf	_heat_timeout,w	;volatile
  2054  002D  1903               	skipnz
  2055  002E  2839               	goto	i1l6769
  2056                           
  2057                           ;L210004 JCT.c: 616: heat_timeout--;
  2058  002F  30FF               	movlw	-1
  2059  0030  07B0               	addwf	_heat_timeout,f	;volatile
  2060  0031  1C03               	skipc
  2061  0032  03B1               	decf	_heat_timeout+1,f	;volatile
  2062                           
  2063                           ;L210004 JCT.c: 617: if(!heat_timeout){
  2064  0033  0831               	movf	_heat_timeout+1,w	;volatile
  2065  0034  0430               	iorwf	_heat_timeout,w	;volatile
  2066  0035  1D03               	skipz
  2067  0036  2839               	goto	i1l6769
  2068                           
  2069                           ;L210004 JCT.c: 618: heat_en = 0;
  2070  0037  01BA               	clrf	_heat_en	;volatile
  2071                           
  2072                           ;L210004 JCT.c: 619: timer = 0;
  2073  0038  01C1               	clrf	_timer	;volatile
  2074  0039                     i1l6769:	
  2075                           
  2076                           ;L210004 JCT.c: 620: }
  2077                           ;L210004 JCT.c: 621: }
  2078                           ;L210004 JCT.c: 622: if(vent_t){
  2079  0039  0842               	movf	_vent_t,w	;volatile
  2080  003A  1903               	btfsc	3,2
  2081  003B  2857               	goto	i1l6781
  2082                           
  2083                           ;L210004 JCT.c: 623: if(vent_c > 0){
  2084  003C  0851               	movf	_vent_c+1,w	;volatile
  2085  003D  3A80               	xorlw	128
  2086  003E  00FF               	movwf	127
  2087  003F  3080               	movlw	128
  2088  0040  027F               	subwf	127,w
  2089  0041  1D03               	skipz
  2090  0042  2845               	goto	u463_25
  2091  0043  3001               	movlw	1
  2092  0044  0250               	subwf	_vent_c,w	;volatile
  2093  0045                     u463_25:	
  2094  0045  1C03               	skipc
  2095  0046  284F               	goto	i1l1979
  2096                           
  2097                           ;L210004 JCT.c: 624: LATA0 = 1;
  2098  0047  0022               	movlb	2	; select bank2
  2099  0048  30FF               	movlw	-1
  2100  0049  140C               	bsf	12,0
  2101                           
  2102                           ;L210004 JCT.c: 625: --vent_c;
  2103  004A  0020               	movlb	0	; select bank0
  2104  004B  07D0               	addwf	_vent_c,f	;volatile
  2105  004C  1C03               	skipc
  2106  004D  03D1               	decf	_vent_c+1,f	;volatile
  2107                           
  2108                           ;L210004 JCT.c: 626: }
  2109  004E  285A               	goto	i1l6783
  2110  004F                     i1l1979:	
  2111                           
  2112                           ;L210004 JCT.c: 627: else{
  2113                           ;L210004 JCT.c: 628: LATA0 = 0;
  2114  004F  0022               	movlb	2	; select bank2
  2115  0050  30C8               	movlw	200
  2116  0051  100C               	bcf	12,0
  2117                           
  2118                           ;L210004 JCT.c: 629: vent_c = 200;
  2119  0052  0020               	movlb	0	; select bank0
  2120  0053  00D0               	movwf	_vent_c	;volatile
  2121  0054  01D1               	clrf	_vent_c+1	;volatile
  2122                           
  2123                           ;L210004 JCT.c: 630: vent_t = 0;
  2124  0055  01C2               	clrf	_vent_t	;volatile
  2125  0056  285A               	goto	i1l6783
  2126  0057                     i1l6781:	
  2127                           
  2128                           ;L210004 JCT.c: 633: else{
  2129                           ;L210004 JCT.c: 634: vent_c = 200;
  2130  0057  30C8               	movlw	200
  2131  0058  00D0               	movwf	_vent_c	;volatile
  2132  0059  01D1               	clrf	_vent_c+1	;volatile
  2133  005A                     i1l6783:	
  2134                           
  2135                           ;L210004 JCT.c: 635: }
  2136                           ;L210004 JCT.c: 636: }
  2137                           ;L210004 JCT.c: 638: pwm_count++;
  2138  005A  0AB6               	incf	_pwm_count,f	;volatile
  2139  005B  1903               	skipnz
  2140  005C  0AB7               	incf	_pwm_count+1,f	;volatile
  2141                           
  2142                           ;L210004 JCT.c: 639: if(pwm_count >= 100){
  2143  005D  0837               	movf	_pwm_count+1,w	;volatile
  2144  005E  3A80               	xorlw	128
  2145  005F  00FF               	movwf	127
  2146  0060  3080               	movlw	128
  2147  0061  027F               	subwf	127,w
  2148  0062  1D03               	skipz
  2149  0063  2866               	goto	u464_25
  2150  0064  3064               	movlw	100
  2151  0065  0236               	subwf	_pwm_count,w	;volatile
  2152  0066                     u464_25:	
  2153  0066  1C03               	skipc
  2154  0067  286B               	goto	i1l6789
  2155                           
  2156                           ;L210004 JCT.c: 640: pwm_count = 0;
  2157  0068  0020               	movlb	0	; select bank0
  2158  0069  01B6               	clrf	_pwm_count	;volatile
  2159  006A  01B7               	clrf	_pwm_count+1	;volatile
  2160  006B                     i1l6789:	
  2161                           
  2162                           ;L210004 JCT.c: 641: }
  2163                           ;L210004 JCT.c: 642: if(pwm_count < 75){
  2164  006B  0020               	movlb	0	; select bank0
  2165  006C  0837               	movf	_pwm_count+1,w	;volatile
  2166  006D  3A80               	xorlw	128
  2167  006E  00FF               	movwf	127
  2168  006F  3080               	movlw	128
  2169  0070  027F               	subwf	127,w
  2170  0071  1D03               	skipz
  2171  0072  2875               	goto	u465_25
  2172  0073  304B               	movlw	75
  2173  0074  0236               	subwf	_pwm_count,w	;volatile
  2174  0075                     u465_25:	
  2175  0075  1803               	skipnc
  2176  0076  287E               	goto	i1l6795
  2177                           
  2178                           ;L210004 JCT.c: 643: if(power){
  2179  0077  0020               	movlb	0	; select bank0
  2180  0078  083D               	movf	_power,w	;volatile
  2181  0079  1903               	btfsc	3,2
  2182  007A  2884               	goto	i1l6799
  2183                           
  2184                           ;L210004 JCT.c: 644: LATA1 = 1;
  2185  007B  0022               	movlb	2	; select bank2
  2186  007C  148C               	bsf	12,1
  2187  007D  2884               	goto	i1l6799
  2188  007E                     i1l6795:	
  2189                           
  2190                           ;L210004 JCT.c: 647: else{
  2191                           ;L210004 JCT.c: 648: if(power){
  2192  007E  0020               	movlb	0	; select bank0
  2193  007F  083D               	movf	_power,w	;volatile
  2194  0080  1903               	btfsc	3,2
  2195  0081  2884               	goto	i1l6799
  2196                           
  2197                           ;L210004 JCT.c: 649: LATA1 = 0;
  2198  0082  0022               	movlb	2	; select bank2
  2199  0083  108C               	bcf	12,1
  2200  0084                     i1l6799:	
  2201                           
  2202                           ;L210004 JCT.c: 650: }
  2203                           ;L210004 JCT.c: 651: }
  2204                           ;L210004 JCT.c: 653: if(heat_en){
  2205  0084  0020               	movlb	0	; select bank0
  2206  0085  083A               	movf	_heat_en,w	;volatile
  2207  0086  1903               	btfsc	3,2
  2208  0087  2896               	goto	i1l1988
  2209                           
  2210                           ;L210004 JCT.c: 654: if(pwm_count < 70){
  2211  0088  0837               	movf	_pwm_count+1,w	;volatile
  2212  0089  3A80               	xorlw	128
  2213  008A  00FF               	movwf	127
  2214  008B  3080               	movlw	128
  2215  008C  027F               	subwf	127,w
  2216  008D  1D03               	skipz
  2217  008E  2891               	goto	u469_25
  2218  008F  3046               	movlw	70
  2219  0090  0236               	subwf	_pwm_count,w	;volatile
  2220  0091                     u469_25:	
  2221  0091  1803               	skipnc
  2222  0092  2896               	goto	i1l1988
  2223                           
  2224                           ;L210004 JCT.c: 655: LATA2 = 1;
  2225  0093  0022               	movlb	2	; select bank2
  2226  0094  150C               	bsf	12,2
  2227                           
  2228                           ;L210004 JCT.c: 656: }
  2229  0095  2898               	goto	i1l6805
  2230  0096                     i1l1988:	
  2231                           
  2232                           ;L210004 JCT.c: 657: else{
  2233                           ;L210004 JCT.c: 658: LATA2 = 0;
  2234  0096  0022               	movlb	2	; select bank2
  2235  0097  110C               	bcf	12,2
  2236  0098                     i1l6805:	
  2237                           
  2238                           ;L210004 JCT.c: 663: }
  2239                           ;L210004 JCT.c: 665: if(TimerReload){
  2240  0098  0020               	movlb	0	; select bank0
  2241  0099  082B               	movf	_TimerReload+1,w	;volatile
  2242  009A  042A               	iorwf	_TimerReload,w	;volatile
  2243  009B  1903               	skipnz
  2244  009C  28A2               	goto	i1l6809
  2245                           
  2246                           ;L210004 JCT.c: 666: TimerReload--;
  2247  009D  30FF               	movlw	-1
  2248  009E  07AA               	addwf	_TimerReload,f	;volatile
  2249  009F  1C03               	skipc
  2250  00A0  03AB               	decf	_TimerReload+1,f	;volatile
  2251                           
  2252                           ;L210004 JCT.c: 667: }
  2253  00A1  28BF               	goto	i1l6827
  2254  00A2                     i1l6809:	
  2255                           
  2256                           ;L210004 JCT.c: 668: else{
  2257                           ;L210004 JCT.c: 669: TimerReload = ((50000/256)/(2 * (4 * 1000000 / 4000000)));
  2258  00A2  3061               	movlw	97
  2259  00A3  00AA               	movwf	_TimerReload	;volatile
  2260  00A4  01AB               	clrf	_TimerReload+1	;volatile
  2261                           
  2262                           ;L210004 JCT.c: 670: if(!power){
  2263  00A5  08BD               	movf	_power,f
  2264  00A6  1D03               	skipz
  2265  00A7  28AC               	goto	i1l6815
  2266                           
  2267                           ;L210004 JCT.c: 671: jct_massage_reset();
  2268  00A8  3186  2659  3180   	fcall	i1_jct_massage_reset
  2269                           
  2270                           ;L210004 JCT.c: 672: }
  2271  00AB  28BF               	goto	i1l6827
  2272  00AC                     i1l6815:	
  2273                           
  2274                           ;L210004 JCT.c: 673: else{
  2275                           ;L210004 JCT.c: 674: if(alt_en){
  2276  00AC  0852               	movf	_alt_en,w	;volatile
  2277  00AD  1903               	btfsc	3,2
  2278  00AE  28B2               	goto	i1l6819
  2279                           
  2280                           ;L210004 JCT.c: 675: alternate();
  2281  00AF  318B  23FB  3180   	fcall	_alternate
  2282  00B2                     i1l6819:	
  2283                           
  2284                           ;L210004 JCT.c: 677: }
  2285                           ;L210004 JCT.c: 678: if(wav_en){
  2286  00B2  0020               	movlb	0	; select bank0
  2287  00B3  0843               	movf	_wav_en,w	;volatile
  2288  00B4  1903               	btfsc	3,2
  2289  00B5  28B9               	goto	i1l6823
  2290                           
  2291                           ;L210004 JCT.c: 679: wave();
  2292  00B6  3180  20C7  3180   	fcall	_wave
  2293  00B9                     i1l6823:	
  2294                           
  2295                           ;L210004 JCT.c: 680: }
  2296                           ;L210004 JCT.c: 681: if(pul_en){
  2297  00B9  0020               	movlb	0	; select bank0
  2298  00BA  083E               	movf	_pul_en,w	;volatile
  2299  00BB  1903               	btfsc	3,2
  2300  00BC  28BF               	goto	i1l6827
  2301                           
  2302                           ;L210004 JCT.c: 682: pulse();
  2303  00BD  318D  25C6         	fcall	_pulse
  2304  00BF                     i1l6827:	
  2305                           
  2306                           ;L210004 JCT.c: 684: }
  2307                           ;L210004 JCT.c: 685: }
  2308                           ;L210004 JCT.c: 686: }
  2309                           ;L210004 JCT.c: 687: TMR0IF = 0;
  2310  00BF  110B               	bcf	11,2
  2311  00C0                     i1l1998:	
  2312  00C0  0872               	movf	??_isr,w
  2313  00C1  0020               	movlb	0	; select bank0
  2314  00C2  00FF               	movwf	127
  2315  00C3  0009               	retfie
  2316  00C4                     __end_of_isr:	
  2317                           
  2318                           	psect	text443
  2319  0659                     __ptext443:	
  2320 ;; =============== function _isr ends ============
  2321                           
  2322                           
  2323 ;; *************** function i1_jct_massage_reset *****************
  2324 ;; Defined at:
  2325 ;;		line 2447 in file "L210004 JCT.c"
  2326 ;; Parameters:    Size  Location     Type
  2327 ;;		None
  2328 ;; Auto vars:     Size  Location     Type
  2329 ;;		None
  2330 ;; Return value:  Size  Location     Type
  2331 ;;		None               void
  2332 ;; Registers used:
  2333 ;;		status,2
  2334 ;; Tracked objects:
  2335 ;;		On entry : 1D/2
  2336 ;;		On exit  : 1F/0
  2337 ;;		Unchanged: FFFE0/0
  2338 ;; Data sizes:     COMMON   BANK0   BANK1   BANK2
  2339 ;;      Params:         0       0       0       0
  2340 ;;      Locals:         0       0       0       0
  2341 ;;      Temps:          0       0       0       0
  2342 ;;      Totals:         0       0       0       0
  2343 ;;Total ram usage:        0 bytes
  2344 ;; Hardware stack levels used:    1
  2345 ;; This function calls:
  2346 ;;		Nothing
  2347 ;; This function is called by:
  2348 ;;		_isr
  2349 ;; This function uses a non-reentrant model
  2350 ;;
  2351  0659                     i1_jct_massage_reset:	
  2352                           
  2353                           ;L210004 JCT.c: 2448: zone0_en = 0;
  2354                           
  2355                           ; Regs used in i1_jct_massage_reset: [status,2]
  2356  0659  0020               	movlb	0	; select bank0
  2357  065A  01D3               	clrf	_zone0_en	;volatile
  2358                           
  2359                           ;L210004 JCT.c: 2449: zone1_en = 0;
  2360  065B  01D4               	clrf	_zone1_en	;volatile
  2361                           
  2362                           ;L210004 JCT.c: 2450: zone2_en = 0;
  2363  065C  01D5               	clrf	_zone2_en	;volatile
  2364                           
  2365                           ;L210004 JCT.c: 2451: zone3_en = 0;
  2366  065D  01D6               	clrf	_zone3_en	;volatile
  2367                           
  2368                           ;L210004 JCT.c: 2452: a_count = 0;
  2369  065E  01AC               	clrf	_a_count	;volatile
  2370  065F  01AD               	clrf	_a_count+1	;volatile
  2371                           
  2372                           ;L210004 JCT.c: 2453: p_count = 0;
  2373  0660  01B4               	clrf	_p_count	;volatile
  2374  0661  01B5               	clrf	_p_count+1	;volatile
  2375                           
  2376                           ;L210004 JCT.c: 2454: w_count = 0;
  2377  0662  01F0               	clrf	_w_count	;volatile
  2378  0663  01F1               	clrf	_w_count+1	;volatile
  2379                           
  2380                           ;L210004 JCT.c: 2455: z_count = 0;
  2381  0664  01B8               	clrf	_z_count	;volatile
  2382  0665  01B9               	clrf	_z_count+1	;volatile
  2383  0666  0008               	return
  2384  0667                     __end_ofi1_jct_massage_reset:	
  2385                           
  2386                           	psect	text444
  2387  0667                     __ptext444:	
  2388 ;; =============== function i1_jct_massage_reset ends ============
  2389                           
  2390                           
  2391 ;; *************** function i1_jct_massage_off *****************
  2392 ;; Defined at:
  2393 ;;		line 2435 in file "L210004 JCT.c"
  2394 ;; Parameters:    Size  Location     Type
  2395 ;;		None
  2396 ;; Auto vars:     Size  Location     Type
  2397 ;;		None
  2398 ;; Return value:  Size  Location     Type
  2399 ;;		None               void
  2400 ;; Registers used:
  2401 ;;		status,2
  2402 ;; Tracked objects:
  2403 ;;		On entry : 1F/0
  2404 ;;		On exit  : 1F/2
  2405 ;;		Unchanged: FFFE0/0
  2406 ;; Data sizes:     COMMON   BANK0   BANK1   BANK2
  2407 ;;      Params:         0       0       0       0
  2408 ;;      Locals:         0       0       0       0
  2409 ;;      Temps:          0       0       0       0
  2410 ;;      Totals:         0       0       0       0
  2411 ;;Total ram usage:        0 bytes
  2412 ;; Hardware stack levels used:    1
  2413 ;; This function calls:
  2414 ;;		Nothing
  2415 ;; This function is called by:
  2416 ;;		_isr
  2417 ;; This function uses a non-reentrant model
  2418 ;;
  2419  0667                     i1_jct_massage_off:	
  2420                           
  2421                           ;L210004 JCT.c: 2436: power = 0;
  2422                           
  2423                           ; Regs used in i1_jct_massage_off: [status,2]
  2424  0667  01BD               	clrf	_power	;volatile
  2425                           
  2426                           ;L210004 JCT.c: 2437: m_flag = 0;
  2427  0668  01BC               	clrf	_m_flag	;volatile
  2428                           
  2429                           ;L210004 JCT.c: 2438: LATA1 = 0;
  2430  0669  0022               	movlb	2	; select bank2
  2431  066A  108C               	bcf	12,1
  2432                           
  2433                           ;L210004 JCT.c: 2439: LATA0 = 0;
  2434  066B  100C               	bcf	12,0
  2435                           
  2436                           ;L210004 JCT.c: 2440: LATA7 = 0;
  2437  066C  138C               	bcf	12,7
  2438                           
  2439                           ;L210004 JCT.c: 2441: LATA0 = 0;
  2440  066D  100C               	bcf	12,0
  2441                           
  2442                           ;L210004 JCT.c: 2442: LATA5 = 0;
  2443  066E  128C               	bcf	12,5
  2444                           
  2445                           ;L210004 JCT.c: 2443: LATA4 = 0;
  2446  066F  120C               	bcf	12,4
  2447                           
  2448                           ;L210004 JCT.c: 2444: LATA3 = 0;
  2449  0670  118C               	bcf	12,3
  2450  0671  0008               	return
  2451  0672                     __end_ofi1_jct_massage_off:	
  2452                           
  2453                           	psect	text445
  2454  0DC6                     __ptext445:	
  2455 ;; =============== function i1_jct_massage_off ends ============
  2456                           
  2457                           
  2458 ;; *************** function _pulse *****************
  2459 ;; Defined at:
  2460 ;;		line 1294 in file "L210004 JCT.c"
  2461 ;; Parameters:    Size  Location     Type
  2462 ;;		None
  2463 ;; Auto vars:     Size  Location     Type
  2464 ;;		None
  2465 ;; Return value:  Size  Location     Type
  2466 ;;		None               void
  2467 ;; Registers used:
  2468 ;;		wreg, status,2, status,0, btemp+1
  2469 ;; Tracked objects:
  2470 ;;		On entry : 1F/0
  2471 ;;		On exit  : 1D/0
  2472 ;;		Unchanged: FFE00/0
  2473 ;; Data sizes:     COMMON   BANK0   BANK1   BANK2
  2474 ;;      Params:         0       0       0       0
  2475 ;;      Locals:         0       0       0       0
  2476 ;;      Temps:          0       0       0       0
  2477 ;;      Totals:         0       0       0       0
  2478 ;;Total ram usage:        0 bytes
  2479 ;; Hardware stack levels used:    1
  2480 ;; This function calls:
  2481 ;;		Nothing
  2482 ;; This function is called by:
  2483 ;;		_isr
  2484 ;; This function uses a non-reentrant model
  2485 ;;
  2486  0DC6                     _pulse:	
  2487                           
  2488                           ;L210004 JCT.c: 1295: if(heat_en){
  2489                           
  2490                           ; Regs used in _pulse: [wreg+status,2+status,0+btemp+1]
  2491  0DC6  083A               	movf	_heat_en,w	;volatile
  2492  0DC7  1903               	btfsc	3,2
  2493  0DC8  2DCC               	goto	i1l2164
  2494                           
  2495                           ;L210004 JCT.c: 1296: LATA2 = 1;
  2496  0DC9  0022               	movlb	2	; select bank2
  2497  0DCA  150C               	bsf	12,2
  2498                           
  2499                           ;L210004 JCT.c: 1297: }
  2500  0DCB  2DCE               	goto	i1l7705
  2501  0DCC                     i1l2164:	
  2502                           
  2503                           ;L210004 JCT.c: 1298: else{
  2504                           ;L210004 JCT.c: 1299: LATA2 = 0;
  2505  0DCC  0022               	movlb	2	; select bank2
  2506  0DCD  110C               	bcf	12,2
  2507  0DCE                     i1l7705:	
  2508                           
  2509                           ;L210004 JCT.c: 1300: }
  2510                           ;L210004 JCT.c: 1301: if(zone0_en && !zone1_en && !zone2_en && !zone3_en){
  2511  0DCE  0020               	movlb	0	; select bank0
  2512  0DCF  0853               	movf	_zone0_en,w	;volatile
  2513  0DD0  1903               	btfsc	3,2
  2514  0DD1  2F5B               	goto	i1l7733
  2515  0DD2  08D4               	movf	_zone1_en,f
  2516  0DD3  1D03               	skipz
  2517  0DD4  2F5B               	goto	i1l7733
  2518  0DD5  08D5               	movf	_zone2_en,f
  2519  0DD6  1D03               	skipz
  2520  0DD7  2F5B               	goto	i1l7733
  2521  0DD8  08D6               	movf	_zone3_en,f
  2522  0DD9  1D03               	skipz
  2523  0DDA  2F5B               	goto	i1l7733
  2524                           
  2525                           ;L210004 JCT.c: 1302: if(z_count < 10){
  2526  0DDB  0839               	movf	_z_count+1,w	;volatile
  2527  0DDC  3A80               	xorlw	128
  2528  0DDD  00FF               	movwf	127
  2529  0DDE  3080               	movlw	128
  2530  0DDF  027F               	subwf	127,w
  2531  0DE0  1D03               	skipz
  2532  0DE1  2DE4               	goto	u696_25
  2533  0DE2  300A               	movlw	10
  2534  0DE3  0238               	subwf	_z_count,w	;volatile
  2535  0DE4                     u696_25:	
  2536  0DE4  1803               	skipnc
  2537  0DE5  2F57               	goto	i1l7731
  2538  0DE6                     L6:	
  2539                           
  2540                           ;L210004 JCT.c: 1303: if(p_count < 20){
  2541  0DE6  0020               	movlb	0	; select bank0
  2542  0DE7  27EB  318D         	fcall	PL2	;call to abstracted procedure
  2543  0DE9  1803               	skipnc
  2544  0DEA  2FD7               	goto	L5
  2545                           
  2546                           ;L210004 JCT.c: 1304: LATA7 = 1;
  2547  0DEB  0022               	movlb	2	; select bank2
  2548  0DEC  178C               	bsf	12,7
  2549  0DED  2DF0               	goto	L2
  2550  0DEE                     i1l7723:	
  2551                           ;L210004 JCT.c: 1308: LATA3 = 0;
  2552                           
  2553                           ;L210004 JCT.c: 1307: LATA4 = 0;
  2554                           
  2555                           ;L210004 JCT.c: 1306: LATA5 = 0;
  2556                           
  2557                           ;L210004 JCT.c: 1305: LATA0 = 1;
  2558                           
  2559                           
  2560                           ;L210004 JCT.c: 1312: LATA7 = 0;
  2561  0DEE  0022               	movlb	2	; select bank2
  2562  0DEF  138C               	bcf	12,7
  2563  0DF0                     L2:	
  2564                           
  2565                           ;L210004 JCT.c: 1313: LATA0 = 1;
  2566  0DF0  140C               	bsf	12,0
  2567                           
  2568                           ;L210004 JCT.c: 1314: LATA5 = 0;
  2569  0DF1  128C               	bcf	12,5
  2570  0DF2                     L4:	
  2571                           
  2572                           ;L210004 JCT.c: 1315: LATA4 = 0;
  2573  0DF2  120C               	bcf	12,4
  2574  0DF3                     L3:	
  2575                           
  2576                           ;L210004 JCT.c: 1316: LATA3 = 0;
  2577  0DF3  118C               	bcf	12,3
  2578  0DF4                     i1l7719:	
  2579                           
  2580                           ;L210004 JCT.c: 1309: p_count++;
  2581  0DF4  0020               	movlb	0	; select bank0
  2582  0DF5  0AB4               	incf	_p_count,f	;volatile
  2583  0DF6  1903               	skipnz
  2584  0DF7  0AB5               	incf	_p_count+1,f	;volatile
  2585                           
  2586                           ;L210004 JCT.c: 1310: }
  2587  0DF8  0008               	return
  2588  0DF9                     i1l7735:	
  2589                           ;L210004 JCT.c: 1311: else if(p_count < 30){
  2590                           
  2591  0DF9  0854               	movf	_zone1_en,w	;volatile
  2592  0DFA  1903               	btfsc	3,2
  2593  0DFB  2F5E               	goto	i1l7761
  2594  0DFC  08D5               	movf	_zone2_en,f
  2595  0DFD  1D03               	skipz
  2596  0DFE  2F5E               	goto	i1l7761
  2597  0DFF  08D6               	movf	_zone3_en,f
  2598  0E00  1D03               	skipz
  2599  0E01  2F5E               	goto	i1l7761
  2600                           
  2601                           ;L210004 JCT.c: 1329: if(z_count < 10){
  2602  0E02  0839               	movf	_z_count+1,w	;volatile
  2603  0E03  27FB  318D         	fcall	PL8	;call to abstracted procedure
  2604  0E05  1D03               	skipz
  2605  0E06  2E09               	goto	u703_25
  2606  0E07  300A               	movlw	10
  2607  0E08                     L9:	
  2608  0E08  0238               	subwf	_z_count,w	;volatile
  2609  0E09                     u703_25:	
  2610  0E09  1803               	skipnc
  2611  0E0A  2F57               	goto	i1l7731
  2612  0E0B                     L7:	
  2613                           
  2614                           ;L210004 JCT.c: 1330: if(p_count < 20){
  2615  0E0B  0020               	movlb	0	; select bank0
  2616  0E0C  27EB  318D         	fcall	PL2	;call to abstracted procedure
  2617  0E0E  1803               	skipnc
  2618  0E0F  2FD7               	goto	L5
  2619                           
  2620                           ;L210004 JCT.c: 1331: LATA7 = 0;
  2621  0E10  0022               	movlb	2	; select bank2
  2622  0E11  138C               	bcf	12,7
  2623                           
  2624                           ;L210004 JCT.c: 1332: LATA0 = 1;
  2625  0E12  140C               	bsf	12,0
  2626                           
  2627                           ;L210004 JCT.c: 1333: LATA5 = 1;
  2628  0E13  168C               	bsf	12,5
  2629  0E14  2DF2               	goto	L4
  2630  0E15                     i1l7763:	
  2631                           ;L210004 JCT.c: 1338: else if(p_count < 30){
  2632                           
  2633                           ;L210004 JCT.c: 1335: LATA3 = 0;
  2634                           
  2635                           ;L210004 JCT.c: 1334: LATA4 = 0;
  2636                           
  2637  0E15  08D4               	movf	_zone1_en,f
  2638  0E16  1D03               	skipz
  2639  0E17  2F61               	goto	i1l7789
  2640  0E18  0855               	movf	_zone2_en,w	;volatile
  2641  0E19  1903               	btfsc	3,2
  2642  0E1A  2F61               	goto	i1l7789
  2643  0E1B  08D6               	movf	_zone3_en,f
  2644  0E1C  1D03               	skipz
  2645  0E1D  2F61               	goto	i1l7789
  2646                           
  2647                           ;L210004 JCT.c: 1356: if(z_count < 10){
  2648  0E1E  0839               	movf	_z_count+1,w	;volatile
  2649  0E1F  27FB  318D         	fcall	PL8	;call to abstracted procedure
  2650  0E21  1D03               	skipz
  2651  0E22  2E25               	goto	u710_25
  2652  0E23  300A               	movlw	10
  2653  0E24                     L10:	
  2654  0E24  0238               	subwf	_z_count,w	;volatile
  2655  0E25                     u710_25:	
  2656  0E25  1803               	skipnc
  2657  0E26  2F57               	goto	i1l7731
  2658  0E27                     L12:	
  2659                           
  2660                           ;L210004 JCT.c: 1357: if(p_count < 20){
  2661  0E27  0020               	movlb	0	; select bank0
  2662  0E28  27EB  318D         	fcall	PL2	;call to abstracted procedure
  2663  0E2A  1803               	skipnc
  2664  0E2B  2FD7               	goto	L5
  2665  0E2C                     i1l7773:	
  2666                           
  2667                           ;L210004 JCT.c: 1358: LATA7 = 0;
  2668  0E2C  0022               	movlb	2	; select bank2
  2669                           
  2670                           ;L210004 JCT.c: 1359: LATA0 = 1;
  2671                           
  2672                           ;L210004 JCT.c: 1360: LATA5 = 0;
  2673                           
  2674                           ;L210004 JCT.c: 1361: LATA4 = 1;
  2675  0E2D  318D  25C1  318D   	fcall	PL12	;call to abstracted procedure
  2676  0E30  2DF3               	goto	L3
  2677  0E31                     i1l7791:	
  2678                           ;L210004 JCT.c: 1365: else if(p_count < 30){
  2679                           
  2680                           ;L210004 JCT.c: 1362: LATA3 = 0;
  2681                           
  2682  0E31  08D4               	movf	_zone1_en,f
  2683  0E32  1D03               	skipz
  2684  0E33  2F64               	goto	i1l7817
  2685  0E34  08D5               	movf	_zone2_en,f
  2686  0E35  1D03               	skipz
  2687  0E36  2F64               	goto	i1l7817
  2688  0E37  0856               	movf	_zone3_en,w	;volatile
  2689  0E38  1903               	btfsc	3,2
  2690  0E39  2F64               	goto	i1l7817
  2691                           
  2692                           ;L210004 JCT.c: 1383: if(z_count < 10){
  2693  0E3A  0839               	movf	_z_count+1,w	;volatile
  2694  0E3B  27FB  318D         	fcall	PL8	;call to abstracted procedure
  2695  0E3D  1D03               	skipz
  2696  0E3E  2E41               	goto	u717_25
  2697  0E3F  300A               	movlw	10
  2698  0E40                     L11:	
  2699  0E40  0238               	subwf	_z_count,w	;volatile
  2700  0E41                     u717_25:	
  2701  0E41  1803               	skipnc
  2702  0E42  2F57               	goto	i1l7731
  2703                           
  2704                           ;L210004 JCT.c: 1384: if(p_count < 20){
  2705  0E43  0020               	movlb	0	; select bank0
  2706  0E44  27EB  318D         	fcall	PL2	;call to abstracted procedure
  2707  0E46  1803               	skipnc
  2708  0E47  2FD7               	goto	L5
  2709  0E48                     i1l7801:	
  2710                           
  2711                           ;L210004 JCT.c: 1385: LATA7 = 0;
  2712  0E48  0022               	movlb	2	; select bank2
  2713  0E49  138C               	bcf	12,7
  2714                           
  2715                           ;L210004 JCT.c: 1386: LATA0 = 1;
  2716  0E4A  140C               	bsf	12,0
  2717                           
  2718                           ;L210004 JCT.c: 1387: LATA5 = 0;
  2719  0E4B  128C               	bcf	12,5
  2720                           
  2721                           ;L210004 JCT.c: 1388: LATA4 = 0;
  2722  0E4C  120C               	bcf	12,4
  2723                           
  2724                           ;L210004 JCT.c: 1389: LATA3 = 1;
  2725  0E4D  158C               	bsf	12,3
  2726  0E4E  2DF4               	goto	i1l7719
  2727  0E4F                     i1l7823:	
  2728                           ;L210004 JCT.c: 1392: else if(p_count < 30){
  2729                           
  2730  0E4F  08D6               	movf	_zone3_en,f
  2731  0E50  1D03               	skipz
  2732  0E51  2F6D               	goto	i1l7863
  2733                           
  2734                           ;L210004 JCT.c: 1410: if(z_count < 10){
  2735  0E52  0839               	movf	_z_count+1,w	;volatile
  2736  0E53  3A80               	xorlw	128
  2737  0E54  00FF               	movwf	127
  2738  0E55  3080               	movlw	128
  2739  0E56  027F               	subwf	127,w
  2740  0E57  1D03               	skipz
  2741  0E58  2E5B               	goto	u724_25
  2742  0E59  300A               	movlw	10
  2743  0E5A  0238               	subwf	_z_count,w	;volatile
  2744  0E5B                     u724_25:	
  2745  0E5B  1C03               	btfss	3,0
  2746  0E5C  2DE6               	goto	L6
  2747                           
  2748                           ;L210004 JCT.c: 1432: else if(z_count < 20){
  2749                           
  2750                           ;L210004 JCT.c: 1419: else if(p_count < 30){
  2751                           
  2752                           ;L210004 JCT.c: 1411: if(p_count < 20){
  2753  0E5D  0020               	movlb	0	; select bank0
  2754  0E5E  27F5  318D         	fcall	PL3	;call to abstracted procedure
  2755  0E60  1D03               	skipz
  2756  0E61  2E09               	goto	u703_25
  2757  0E62  3014               	movlw	20
  2758  0E63  2E08               	goto	L9
  2759  0E64                     i1l7867:	
  2760                           ;L210004 JCT.c: 1441: else if(p_count < 30){
  2761                           
  2762                           ;L210004 JCT.c: 1433: if(p_count < 20){
  2763                           
  2764  0E64  0855               	movf	_zone2_en,w	;volatile
  2765  0E65  1903               	btfsc	3,2
  2766  0E66  2F73               	goto	i1l7909
  2767  0E67  08D6               	movf	_zone3_en,f
  2768  0E68  1D03               	skipz
  2769  0E69  2F73               	goto	i1l7909
  2770                           
  2771                           ;L210004 JCT.c: 1459: if(z_count < 10){
  2772  0E6A  0839               	movf	_z_count+1,w	;volatile
  2773  0E6B  3A80               	xorlw	128
  2774  0E6C  00FF               	movwf	127
  2775  0E6D  3080               	movlw	128
  2776  0E6E  027F               	subwf	127,w
  2777  0E6F  1D03               	skipz
  2778  0E70  2E73               	goto	u734_25
  2779  0E71  300A               	movlw	10
  2780  0E72  0238               	subwf	_z_count,w	;volatile
  2781  0E73                     u734_25:	
  2782  0E73  1C03               	btfss	3,0
  2783  0E74  2DE6               	goto	L6
  2784  0E75  2E9C               	goto	L13
  2785  0E76                     i1l7913:	
  2786                           ;L210004 JCT.c: 1490: else if(p_count < 30){
  2787                           
  2788                           ;L210004 JCT.c: 1482: if(p_count < 20){
  2789                           
  2790                           ;L210004 JCT.c: 1481: else if(z_count < 20){
  2791                           
  2792                           ;L210004 JCT.c: 1468: else if(p_count < 30){
  2793                           
  2794                           ;L210004 JCT.c: 1460: if(p_count < 20){
  2795                           
  2796  0E76  08D5               	movf	_zone2_en,f
  2797  0E77  1D03               	skipz
  2798  0E78  2F79               	goto	i1l7955
  2799  0E79  0856               	movf	_zone3_en,w	;volatile
  2800  0E7A  1903               	btfsc	3,2
  2801  0E7B  2F79               	goto	i1l7955
  2802                           
  2803                           ;L210004 JCT.c: 1508: if(z_count < 10){
  2804  0E7C  0839               	movf	_z_count+1,w	;volatile
  2805  0E7D  3A80               	xorlw	128
  2806  0E7E  00FF               	movwf	127
  2807  0E7F  3080               	movlw	128
  2808  0E80  027F               	subwf	127,w
  2809  0E81  1D03               	skipz
  2810  0E82  2E85               	goto	u744_25
  2811  0E83  300A               	movlw	10
  2812  0E84  0238               	subwf	_z_count,w	;volatile
  2813  0E85                     u744_25:	
  2814  0E85  1C03               	btfss	3,0
  2815  0E86  2DE6               	goto	L6
  2816  0E87  2EB7               	goto	L14
  2817  0E88                     i1l7957:	
  2818                           ;L210004 JCT.c: 1539: else if(p_count < 30){
  2819                           
  2820                           ;L210004 JCT.c: 1531: if(p_count < 20){
  2821                           
  2822                           ;L210004 JCT.c: 1530: else if(z_count < 20){
  2823                           
  2824                           ;L210004 JCT.c: 1517: else if(p_count < 30){
  2825                           
  2826                           ;L210004 JCT.c: 1509: if(p_count < 20){
  2827                           
  2828  0E88  0854               	movf	_zone1_en,w	;volatile
  2829  0E89  1903               	btfsc	3,2
  2830  0E8A  2F7C               	goto	i1l8001
  2831  0E8B  0855               	movf	_zone2_en,w	;volatile
  2832  0E8C  1903               	btfsc	3,2
  2833  0E8D  2F7C               	goto	i1l8001
  2834  0E8E  08D6               	movf	_zone3_en,f
  2835  0E8F  1D03               	skipz
  2836  0E90  2F7C               	goto	i1l8001
  2837                           
  2838                           ;L210004 JCT.c: 1557: if(z_count < 10){
  2839  0E91  0839               	movf	_z_count+1,w	;volatile
  2840  0E92  3A80               	xorlw	128
  2841  0E93  00FF               	movwf	127
  2842  0E94  3080               	movlw	128
  2843  0E95  027F               	subwf	127,w
  2844  0E96  1D03               	skipz
  2845  0E97  2E9A               	goto	u754_25
  2846  0E98  300A               	movlw	10
  2847  0E99  0238               	subwf	_z_count,w	;volatile
  2848  0E9A                     u754_25:	
  2849  0E9A  1C03               	btfss	3,0
  2850  0E9B  2E0B               	goto	L7
  2851  0E9C                     L13:	
  2852                           
  2853                           ;L210004 JCT.c: 1579: else if(z_count < 20){
  2854                           
  2855                           ;L210004 JCT.c: 1566: else if(p_count < 30){
  2856                           
  2857                           ;L210004 JCT.c: 1558: if(p_count < 20){
  2858  0E9C  0020               	movlb	0	; select bank0
  2859  0E9D  27F5  318D         	fcall	PL3	;call to abstracted procedure
  2860  0E9F  1D03               	skipz
  2861  0EA0  2E25               	goto	u710_25
  2862  0EA1  3014               	movlw	20
  2863  0EA2  2E24               	goto	L10
  2864  0EA3                     i1l8003:	
  2865                           ;L210004 JCT.c: 1588: else if(p_count < 30){
  2866                           
  2867                           ;L210004 JCT.c: 1580: if(p_count < 20){
  2868                           
  2869  0EA3  0854               	movf	_zone1_en,w	;volatile
  2870  0EA4  1903               	btfsc	3,2
  2871  0EA5  2F7F               	goto	i1l8047
  2872  0EA6  08D5               	movf	_zone2_en,f
  2873  0EA7  1D03               	skipz
  2874  0EA8  2F7F               	goto	i1l8047
  2875  0EA9  0856               	movf	_zone3_en,w	;volatile
  2876  0EAA  1903               	btfsc	3,2
  2877  0EAB  2F7F               	goto	i1l8047
  2878                           
  2879                           ;L210004 JCT.c: 1606: if(z_count < 10){
  2880  0EAC  0839               	movf	_z_count+1,w	;volatile
  2881  0EAD  3A80               	xorlw	128
  2882  0EAE  00FF               	movwf	127
  2883  0EAF  3080               	movlw	128
  2884  0EB0  027F               	subwf	127,w
  2885  0EB1  1D03               	skipz
  2886  0EB2  2EB5               	goto	u764_25
  2887  0EB3  300A               	movlw	10
  2888  0EB4  0238               	subwf	_z_count,w	;volatile
  2889  0EB5                     u764_25:	
  2890  0EB5  1C03               	btfss	3,0
  2891  0EB6  2E0B               	goto	L7
  2892  0EB7                     L14:	
  2893                           
  2894                           ;L210004 JCT.c: 1628: else if(z_count < 20){
  2895                           
  2896                           ;L210004 JCT.c: 1615: else if(p_count < 30){
  2897                           
  2898                           ;L210004 JCT.c: 1607: if(p_count < 20){
  2899  0EB7  0020               	movlb	0	; select bank0
  2900  0EB8  27F5  318D         	fcall	PL3	;call to abstracted procedure
  2901  0EBA  1D03               	skipz
  2902  0EBB  2E41               	goto	u717_25
  2903  0EBC  3014               	movlw	20
  2904  0EBD  2E40               	goto	L11
  2905  0EBE                     i1l8049:	
  2906                           ;L210004 JCT.c: 1637: else if(p_count < 30){
  2907                           
  2908                           ;L210004 JCT.c: 1629: if(p_count < 20){
  2909                           
  2910  0EBE  08D4               	movf	_zone1_en,f
  2911  0EBF  1D03               	skipz
  2912  0EC0  2F82               	goto	i1l8093
  2913  0EC1  0855               	movf	_zone2_en,w	;volatile
  2914  0EC2  1903               	btfsc	3,2
  2915  0EC3  2F82               	goto	i1l8093
  2916  0EC4  0856               	movf	_zone3_en,w	;volatile
  2917  0EC5  1903               	btfsc	3,2
  2918  0EC6  2F82               	goto	i1l8093
  2919                           
  2920                           ;L210004 JCT.c: 1655: if(z_count < 10){
  2921  0EC7  0839               	movf	_z_count+1,w	;volatile
  2922  0EC8  3A80               	xorlw	128
  2923  0EC9  00FF               	movwf	127
  2924  0ECA  3080               	movlw	128
  2925  0ECB  027F               	subwf	127,w
  2926  0ECC  1D03               	skipz
  2927  0ECD  2ED0               	goto	u774_25
  2928  0ECE  300A               	movlw	10
  2929  0ECF  0238               	subwf	_z_count,w	;volatile
  2930  0ED0                     u774_25:	
  2931  0ED0  1C03               	btfss	3,0
  2932  0ED1  2E27               	goto	L12
  2933                           
  2934                           ;L210004 JCT.c: 1677: else if(z_count < 20){
  2935                           
  2936                           ;L210004 JCT.c: 1664: else if(p_count < 30){
  2937                           
  2938                           ;L210004 JCT.c: 1656: if(p_count < 20){
  2939  0ED2  0020               	movlb	0	; select bank0
  2940  0ED3  27F5  318D         	fcall	PL3	;call to abstracted procedure
  2941  0ED5  1D03               	skipz
  2942  0ED6  2FD0               	goto	u845_25
  2943  0ED7  3014               	movlw	20
  2944  0ED8  2FCF               	goto	L8
  2945  0ED9                     i1l8101:	
  2946                           ;L210004 JCT.c: 1686: else if(p_count < 30){
  2947                           
  2948                           ;L210004 JCT.c: 1678: if(p_count < 20){
  2949                           
  2950                           
  2951                           ;L210004 JCT.c: 1704: if(z_count < 10){
  2952  0ED9  27F5  318D         	fcall	PL3	;call to abstracted procedure
  2953  0EDB  1D03               	skipz
  2954  0EDC  2EDF               	goto	u784_25
  2955  0EDD  300A               	movlw	10
  2956  0EDE  0238               	subwf	_z_count,w	;volatile
  2957  0EDF                     u784_25:	
  2958  0EDF  1C03               	btfss	3,0
  2959  0EE0  2DE6               	goto	L6
  2960                           
  2961                           ;L210004 JCT.c: 1726: else if(z_count < 20){
  2962                           
  2963                           ;L210004 JCT.c: 1713: else if(p_count < 30){
  2964                           
  2965                           ;L210004 JCT.c: 1705: if(p_count < 20){
  2966  0EE1  0020               	movlb	0	; select bank0
  2967  0EE2  27F5  318D         	fcall	PL3	;call to abstracted procedure
  2968  0EE4  1D03               	skipz
  2969  0EE5  2EE8               	goto	u787_25
  2970  0EE6  3014               	movlw	20
  2971  0EE7  0238               	subwf	_z_count,w	;volatile
  2972  0EE8                     u787_25:	
  2973  0EE8  1C03               	btfss	3,0
  2974  0EE9  2E0B               	goto	L7
  2975                           
  2976                           ;L210004 JCT.c: 1748: else if(z_count < 30){
  2977                           
  2978                           ;L210004 JCT.c: 1735: else if(p_count < 30){
  2979                           
  2980                           ;L210004 JCT.c: 1727: if(p_count < 20){
  2981  0EEA  0020               	movlb	0	; select bank0
  2982  0EEB  27F5  318D         	fcall	PL3	;call to abstracted procedure
  2983  0EED  1D03               	skipz
  2984  0EEE  2E25               	goto	u710_25
  2985  0EEF  301E               	movlw	30
  2986  0EF0  2E24               	goto	L10
  2987  0EF1                     i1l8163:	
  2988                           ;L210004 JCT.c: 1757: else if(p_count < 30){
  2989                           
  2990                           ;L210004 JCT.c: 1749: if(p_count < 20){
  2991                           
  2992  0EF1  0856               	movf	_zone3_en,w	;volatile
  2993  0EF2  1903               	btfsc	3,2
  2994  0EF3  2F97               	goto	i1l8221
  2995                           
  2996                           ;L210004 JCT.c: 1775: if(z_count < 10){
  2997  0EF4  0839               	movf	_z_count+1,w	;volatile
  2998  0EF5  3A80               	xorlw	128
  2999  0EF6  00FF               	movwf	127
  3000  0EF7  3080               	movlw	128
  3001  0EF8  027F               	subwf	127,w
  3002  0EF9  1D03               	skipz
  3003  0EFA  2EFD               	goto	u797_25
  3004  0EFB  300A               	movlw	10
  3005  0EFC  0238               	subwf	_z_count,w	;volatile
  3006  0EFD                     u797_25:	
  3007  0EFD  1C03               	btfss	3,0
  3008  0EFE  2DE6               	goto	L6
  3009                           
  3010                           ;L210004 JCT.c: 1797: else if(z_count < 20){
  3011                           
  3012                           ;L210004 JCT.c: 1784: else if(p_count < 30){
  3013                           
  3014                           ;L210004 JCT.c: 1776: if(p_count < 20){
  3015  0EFF  0020               	movlb	0	; select bank0
  3016  0F00  27F5  318D         	fcall	PL3	;call to abstracted procedure
  3017  0F02  1D03               	skipz
  3018  0F03  2F06               	goto	u800_25
  3019  0F04  3014               	movlw	20
  3020  0F05  0238               	subwf	_z_count,w	;volatile
  3021  0F06                     u800_25:	
  3022  0F06  1C03               	btfss	3,0
  3023  0F07  2E0B               	goto	L7
  3024                           
  3025                           ;L210004 JCT.c: 1806: else if(p_count < 30){
  3026                           
  3027                           ;L210004 JCT.c: 1798: if(p_count < 20){
  3028  0F08  2F38               	goto	i1l8329
  3029  0F09                     i1l8225:	
  3030                           ;L210004 JCT.c: 1828: else if(p_count < 30){
  3031                           
  3032                           ;L210004 JCT.c: 1820: if(p_count < 20){
  3033                           
  3034                           ;L210004 JCT.c: 1819: else if(z_count < 30){
  3035                           
  3036  0F09  0855               	movf	_zone2_en,w	;volatile
  3037  0F0A  1903               	btfsc	3,2
  3038  0F0B  2F9D               	goto	i1l8285
  3039  0F0C  0856               	movf	_zone3_en,w	;volatile
  3040  0F0D  1903               	btfsc	3,2
  3041  0F0E  2F9D               	goto	i1l8285
  3042                           
  3043                           ;L210004 JCT.c: 1846: if(z_count < 10){
  3044  0F0F  0839               	movf	_z_count+1,w	;volatile
  3045  0F10  3A80               	xorlw	128
  3046  0F11  00FF               	movwf	127
  3047  0F12  3080               	movlw	128
  3048  0F13  027F               	subwf	127,w
  3049  0F14  1D03               	skipz
  3050  0F15  2F18               	goto	u810_25
  3051  0F16  300A               	movlw	10
  3052  0F17  0238               	subwf	_z_count,w	;volatile
  3053  0F18                     u810_25:	
  3054  0F18  1C03               	btfss	3,0
  3055  0F19  2DE6               	goto	L6
  3056  0F1A  2F2F               	goto	L15
  3057  0F1B                     i1l8287:	
  3058                           ;L210004 JCT.c: 1899: else if(p_count < 30){
  3059                           
  3060                           ;L210004 JCT.c: 1891: if(p_count < 20){
  3061                           
  3062                           ;L210004 JCT.c: 1890: else if(z_count < 30){
  3063                           
  3064                           ;L210004 JCT.c: 1877: else if(p_count < 30){
  3065                           
  3066                           ;L210004 JCT.c: 1869: if(p_count < 20){
  3067                           
  3068                           ;L210004 JCT.c: 1868: else if(z_count < 20){
  3069                           
  3070                           ;L210004 JCT.c: 1855: else if(p_count < 30){
  3071                           
  3072                           ;L210004 JCT.c: 1847: if(p_count < 20){
  3073                           
  3074  0F1B  0854               	movf	_zone1_en,w	;volatile
  3075  0F1C  1903               	btfsc	3,2
  3076  0F1D  2FA0               	goto	i1l8349
  3077  0F1E  0855               	movf	_zone2_en,w	;volatile
  3078  0F1F  1903               	btfsc	3,2
  3079  0F20  2FA0               	goto	i1l8349
  3080  0F21  0856               	movf	_zone3_en,w	;volatile
  3081  0F22  1903               	btfsc	3,2
  3082  0F23  2FA0               	goto	i1l8349
  3083                           
  3084                           ;L210004 JCT.c: 1917: if(z_count < 10){
  3085  0F24  0839               	movf	_z_count+1,w	;volatile
  3086  0F25  3A80               	xorlw	128
  3087  0F26  00FF               	movwf	127
  3088  0F27  3080               	movlw	128
  3089  0F28  027F               	subwf	127,w
  3090  0F29  1D03               	skipz
  3091  0F2A  2F2D               	goto	u823_25
  3092  0F2B  300A               	movlw	10
  3093  0F2C  0238               	subwf	_z_count,w	;volatile
  3094  0F2D                     u823_25:	
  3095  0F2D  1C03               	btfss	3,0
  3096  0F2E  2E0B               	goto	L7
  3097  0F2F                     L15:	
  3098                           
  3099                           ;L210004 JCT.c: 1939: else if(z_count < 20){
  3100                           
  3101                           ;L210004 JCT.c: 1926: else if(p_count < 30){
  3102                           
  3103                           ;L210004 JCT.c: 1918: if(p_count < 20){
  3104  0F2F  0020               	movlb	0	; select bank0
  3105  0F30  27F5  318D         	fcall	PL3	;call to abstracted procedure
  3106  0F32  1D03               	skipz
  3107  0F33  2F36               	goto	u826_25
  3108  0F34  3014               	movlw	20
  3109  0F35  0238               	subwf	_z_count,w	;volatile
  3110  0F36                     u826_25:	
  3111  0F36  1C03               	btfss	3,0
  3112  0F37  2E27               	goto	L12
  3113  0F38                     i1l8329:	
  3114                           ;L210004 JCT.c: 1948: else if(p_count < 30){
  3115                           
  3116                           ;L210004 JCT.c: 1940: if(p_count < 20){
  3117                           
  3118                           
  3119                           ;L210004 JCT.c: 1961: else if(z_count < 30){
  3120  0F38  0020               	movlb	0	; select bank0
  3121  0F39  27F5  318D         	fcall	PL3	;call to abstracted procedure
  3122  0F3B  1D03               	skipz
  3123  0F3C  2FD0               	goto	u845_25
  3124  0F3D  301E               	movlw	30
  3125  0F3E  2FCF               	goto	L8
  3126  0F3F                     i1l8395:	
  3127                           ;L210004 JCT.c: 2019: else if(p_count < 30){
  3128                           
  3129                           ;L210004 JCT.c: 2011: if(p_count < 20){
  3130                           
  3131                           ;L210004 JCT.c: 1997: else if(p_count < 30){
  3132                           
  3133                           ;L210004 JCT.c: 1989: if(p_count < 20){
  3134                           
  3135                           ;L210004 JCT.c: 1970: else if(p_count < 30){
  3136                           
  3137                           ;L210004 JCT.c: 1962: if(p_count < 20){
  3138                           
  3139                           
  3140                           ;L210004 JCT.c: 2033: if(p_count < 20){
  3141  0F3F  0020               	movlb	0	; select bank0
  3142  0F40  27EB  318D         	fcall	PL2	;call to abstracted procedure
  3143  0F42  1C03               	btfss	3,0
  3144  0F43  2DEE               	goto	i1l7723
  3145                           
  3146                           ;L210004 JCT.c: 2041: else if(p_count < 30){
  3147  0F44  0020               	movlb	0	; select bank0
  3148  0F45  0835               	movf	_p_count+1,w	;volatile
  3149  0F46  3A80               	xorlw	128
  3150  0F47  00FF               	movwf	127
  3151  0F48  3080               	movlw	128
  3152  0F49  027F               	subwf	127,w
  3153  0F4A  1D03               	skipz
  3154  0F4B  2F4E               	goto	u844_25
  3155  0F4C  301E               	movlw	30
  3156  0F4D  0234               	subwf	_p_count,w	;volatile
  3157  0F4E                     u844_25:	
  3158  0F4E  1C03               	btfss	3,0
  3159  0F4F  2E2C               	goto	i1l7773
  3160  0F50                     i1l7727:	
  3161                           
  3162                           ;L210004 JCT.c: 1319: else{
  3163                           ;L210004 JCT.c: 1320: p_count = 0;
  3164  0F50  0020               	movlb	0	; select bank0
  3165  0F51  01B4               	clrf	_p_count	;volatile
  3166  0F52  01B5               	clrf	_p_count+1	;volatile
  3167                           
  3168                           ;L210004 JCT.c: 1321: z_count++;
  3169  0F53  0AB8               	incf	_z_count,f	;volatile
  3170  0F54  1903               	skipnz
  3171  0F55  0AB9               	incf	_z_count+1,f	;volatile
  3172  0F56  0008               	return
  3173  0F57                     i1l7731:	
  3174                           
  3175                           ;L210004 JCT.c: 1324: else{
  3176                           ;L210004 JCT.c: 1325: z_count = 0;
  3177  0F57  0020               	movlb	0	; select bank0
  3178  0F58  01B8               	clrf	_z_count	;volatile
  3179  0F59  01B9               	clrf	_z_count+1	;volatile
  3180  0F5A  0008               	return
  3181  0F5B                     i1l7733:	
  3182                           
  3183                           ;L210004 JCT.c: 1328: else if(!zone0_en && zone1_en && !zone2_en && !zone3_en){
  3184  0F5B  08D3               	movf	_zone0_en,f
  3185  0F5C  1903               	btfsc	3,2
  3186  0F5D  2DF9               	goto	i1l7735
  3187  0F5E                     i1l7761:	
  3188                           
  3189                           ;L210004 JCT.c: 1355: else if(!zone0_en && !zone1_en && zone2_en && !zone3_en){
  3190  0F5E  08D3               	movf	_zone0_en,f
  3191  0F5F  1903               	btfsc	3,2
  3192  0F60  2E15               	goto	i1l7763
  3193  0F61                     i1l7789:	
  3194                           
  3195                           ;L210004 JCT.c: 1382: else if(!zone0_en && !zone1_en && !zone2_en && zone3_en){
  3196  0F61  08D3               	movf	_zone0_en,f
  3197  0F62  1903               	btfsc	3,2
  3198  0F63  2E31               	goto	i1l7791
  3199  0F64                     i1l7817:	
  3200                           
  3201                           ;L210004 JCT.c: 1409: else if(zone0_en && zone1_en && !zone2_en && !zone3_en){
  3202  0F64  0853               	movf	_zone0_en,w	;volatile
  3203  0F65  1903               	btfsc	3,2
  3204  0F66  2F6D               	goto	i1l7863
  3205  0F67  0854               	movf	_zone1_en,w	;volatile
  3206  0F68  1903               	btfsc	3,2
  3207  0F69  2F6D               	goto	i1l7863
  3208  0F6A  08D5               	movf	_zone2_en,f
  3209  0F6B  1903               	btfsc	3,2
  3210  0F6C  2E4F               	goto	i1l7823
  3211  0F6D                     i1l7863:	
  3212                           
  3213                           ;L210004 JCT.c: 1458: else if(zone0_en && !zone1_en && zone2_en && !zone3_en){
  3214  0F6D  0853               	movf	_zone0_en,w	;volatile
  3215  0F6E  1903               	btfsc	3,2
  3216  0F6F  2F73               	goto	i1l7909
  3217  0F70  08D4               	movf	_zone1_en,f
  3218  0F71  1903               	btfsc	3,2
  3219  0F72  2E64               	goto	i1l7867
  3220  0F73                     i1l7909:	
  3221                           
  3222                           ;L210004 JCT.c: 1507: else if(zone0_en && !zone1_en && !zone2_en && zone3_en){
  3223  0F73  0853               	movf	_zone0_en,w	;volatile
  3224  0F74  1903               	btfsc	3,2
  3225  0F75  2F79               	goto	i1l7955
  3226  0F76  08D4               	movf	_zone1_en,f
  3227  0F77  1903               	btfsc	3,2
  3228  0F78  2E76               	goto	i1l7913
  3229  0F79                     i1l7955:	
  3230                           
  3231                           ;L210004 JCT.c: 1556: else if(!zone0_en && zone1_en && zone2_en && !zone3_en){
  3232  0F79  08D3               	movf	_zone0_en,f
  3233  0F7A  1903               	btfsc	3,2
  3234  0F7B  2E88               	goto	i1l7957
  3235  0F7C                     i1l8001:	
  3236                           
  3237                           ;L210004 JCT.c: 1605: else if(!zone0_en && zone1_en && !zone2_en && zone3_en){
  3238  0F7C  08D3               	movf	_zone0_en,f
  3239  0F7D  1903               	btfsc	3,2
  3240  0F7E  2EA3               	goto	i1l8003
  3241  0F7F                     i1l8047:	
  3242                           
  3243                           ;L210004 JCT.c: 1654: else if(!zone0_en && !zone1_en && zone2_en && zone3_en){
  3244  0F7F  08D3               	movf	_zone0_en,f
  3245  0F80  1903               	btfsc	3,2
  3246  0F81  2EBE               	goto	i1l8049
  3247  0F82                     i1l8093:	
  3248                           
  3249                           ;L210004 JCT.c: 1703: else if(zone0_en && zone1_en && zone2_en && !zone3_en){
  3250  0F82  0853               	movf	_zone0_en,w	;volatile
  3251  0F83  1903               	btfsc	3,2
  3252  0F84  2F8E               	goto	i1l8157
  3253  0F85  0854               	movf	_zone1_en,w	;volatile
  3254  0F86  1903               	btfsc	3,2
  3255  0F87  2F8E               	goto	i1l8157
  3256  0F88  0855               	movf	_zone2_en,w	;volatile
  3257  0F89  1903               	btfsc	3,2
  3258  0F8A  2F8E               	goto	i1l8157
  3259  0F8B  08D6               	movf	_zone3_en,f
  3260  0F8C  1903               	btfsc	3,2
  3261  0F8D  2ED9               	goto	i1l8101
  3262  0F8E                     i1l8157:	
  3263                           
  3264                           ;L210004 JCT.c: 1774: else if(zone0_en && zone1_en && !zone2_en && zone3_en){
  3265  0F8E  0853               	movf	_zone0_en,w	;volatile
  3266  0F8F  1903               	btfsc	3,2
  3267  0F90  2F97               	goto	i1l8221
  3268  0F91  0854               	movf	_zone1_en,w	;volatile
  3269  0F92  1903               	btfsc	3,2
  3270  0F93  2F97               	goto	i1l8221
  3271  0F94  08D5               	movf	_zone2_en,f
  3272  0F95  1903               	btfsc	3,2
  3273  0F96  2EF1               	goto	i1l8163
  3274  0F97                     i1l8221:	
  3275                           
  3276                           ;L210004 JCT.c: 1845: else if(zone0_en && !zone1_en && zone2_en && zone3_en){
  3277  0F97  0853               	movf	_zone0_en,w	;volatile
  3278  0F98  1903               	btfsc	3,2
  3279  0F99  2F9D               	goto	i1l8285
  3280  0F9A  08D4               	movf	_zone1_en,f
  3281  0F9B  1903               	btfsc	3,2
  3282  0F9C  2F09               	goto	i1l8225
  3283  0F9D                     i1l8285:	
  3284                           
  3285                           ;L210004 JCT.c: 1916: else if(!zone0_en && zone1_en && zone2_en && zone3_en){
  3286  0F9D  08D3               	movf	_zone0_en,f
  3287  0F9E  1903               	btfsc	3,2
  3288  0F9F  2F1B               	goto	i1l8287
  3289  0FA0                     i1l8349:	
  3290                           
  3291                           ;L210004 JCT.c: 1987: else if(zone0_en && zone1_en && zone2_en && zone3_en){
  3292  0FA0  0853               	movf	_zone0_en,w	;volatile
  3293  0FA1  1903               	btfsc	3,2
  3294  0FA2  2FE4               	goto	i1l2362
  3295  0FA3  0854               	movf	_zone1_en,w	;volatile
  3296  0FA4  1903               	btfsc	3,2
  3297  0FA5  2FE4               	goto	i1l2362
  3298  0FA6  0855               	movf	_zone2_en,w	;volatile
  3299  0FA7  1903               	btfsc	3,2
  3300  0FA8  2FE4               	goto	i1l2362
  3301  0FA9  0856               	movf	_zone3_en,w	;volatile
  3302  0FAA  1903               	btfsc	3,2
  3303  0FAB  2FE4               	goto	i1l2362
  3304                           
  3305                           ;L210004 JCT.c: 1988: if(z_count < 10){
  3306  0FAC  0839               	movf	_z_count+1,w	;volatile
  3307  0FAD  3A80               	xorlw	128
  3308  0FAE  00FF               	movwf	127
  3309  0FAF  3080               	movlw	128
  3310  0FB0  027F               	subwf	127,w
  3311  0FB1  1D03               	skipz
  3312  0FB2  2FB5               	goto	u836_25
  3313  0FB3  300A               	movlw	10
  3314  0FB4  0238               	subwf	_z_count,w	;volatile
  3315  0FB5                     u836_25:	
  3316  0FB5  1C03               	btfss	3,0
  3317  0FB6  2DE6               	goto	L6
  3318                           
  3319                           ;L210004 JCT.c: 2010: else if(z_count < 20){
  3320  0FB7  0020               	movlb	0	; select bank0
  3321  0FB8  27F5  318D         	fcall	PL3	;call to abstracted procedure
  3322  0FBA  1D03               	skipz
  3323  0FBB  2FBE               	goto	u839_25
  3324  0FBC  3014               	movlw	20
  3325  0FBD  0238               	subwf	_z_count,w	;volatile
  3326  0FBE                     u839_25:	
  3327  0FBE  1C03               	btfss	3,0
  3328  0FBF  2E0B               	goto	L7
  3329                           
  3330                           ;L210004 JCT.c: 2032: else if(z_count < 30){
  3331  0FC0  0020               	movlb	0	; select bank0
  3332  0FC1  27F5  318D         	fcall	PL3	;call to abstracted procedure
  3333  0FC3  1D03               	skipz
  3334  0FC4  2FC7               	goto	u842_25
  3335  0FC5  301E               	movlw	30
  3336  0FC6  0238               	subwf	_z_count,w	;volatile
  3337  0FC7                     u842_25:	
  3338  0FC7  1C03               	btfss	3,0
  3339  0FC8  2F3F               	goto	i1l8395
  3340                           
  3341                           ;L210004 JCT.c: 2054: else if(z_count < 40){
  3342  0FC9  0020               	movlb	0	; select bank0
  3343  0FCA  27F5  318D         	fcall	PL3	;call to abstracted procedure
  3344  0FCC  1D03               	skipz
  3345  0FCD  2FD0               	goto	u845_25
  3346  0FCE  3028               	movlw	40
  3347  0FCF                     L8:	
  3348  0FCF  0238               	subwf	_z_count,w	;volatile
  3349  0FD0                     u845_25:	
  3350  0FD0  1803               	skipnc
  3351  0FD1  2F57               	goto	i1l7731
  3352                           
  3353                           ;L210004 JCT.c: 2055: if(p_count < 20){
  3354  0FD2  0020               	movlb	0	; select bank0
  3355  0FD3  27EB  318D         	fcall	PL2	;call to abstracted procedure
  3356  0FD5  1C03               	btfss	3,0
  3357  0FD6  2E48               	goto	i1l7801
  3358  0FD7                     L5:	
  3359                           
  3360                           ;L210004 JCT.c: 2063: else if(p_count < 30){
  3361  0FD7  0020               	movlb	0	; select bank0
  3362  0FD8  0835               	movf	_p_count+1,w	;volatile
  3363  0FD9  3A80               	xorlw	128
  3364  0FDA  00FF               	movwf	127
  3365  0FDB  3080               	movlw	128
  3366  0FDC  027F               	subwf	127,w
  3367  0FDD  1D03               	skipz
  3368  0FDE  2FE1               	goto	u847_25
  3369  0FDF  301E               	movlw	30
  3370  0FE0  0234               	subwf	_p_count,w	;volatile
  3371  0FE1                     u847_25:	
  3372  0FE1  1C03               	btfss	3,0
  3373  0FE2  2DEE               	goto	i1l7723
  3374  0FE3  2F50               	goto	i1l7727
  3375  0FE4                     i1l2362:	
  3376                           
  3377                           ;L210004 JCT.c: 2080: else{
  3378                           ;L210004 JCT.c: 2081: LATA7 = 0;
  3379  0FE4  0022               	movlb	2	; select bank2
  3380  0FE5  138C               	bcf	12,7
  3381                           
  3382                           ;L210004 JCT.c: 2082: LATA0 = 0;
  3383  0FE6  100C               	bcf	12,0
  3384                           
  3385                           ;L210004 JCT.c: 2083: LATA5 = 0;
  3386  0FE7  128C               	bcf	12,5
  3387                           
  3388                           ;L210004 JCT.c: 2084: LATA4 = 0;
  3389  0FE8  120C               	bcf	12,4
  3390                           
  3391                           ;L210004 JCT.c: 2085: LATA3 = 0;
  3392  0FE9  118C               	bcf	12,3
  3393  0FEA  0008               	return
  3394  0FEB                     __end_of_pulse:	
  3395  0FEB                     PL2:	
  3396  0FEB  0835               	movf	_p_count+1,w	;volatile
  3397  0FEC  3A80               	xorlw	128
  3398  0FED  00FF               	movwf	127
  3399  0FEE  3080               	movlw	128
  3400  0FEF  027F               	subwf	127,w
  3401  0FF0  1D03               	skipz
  3402  0FF1  0008               	return
  3403  0FF2  3014               	movlw	20
  3404  0FF3  0234               	subwf	_p_count,w	;volatile
  3405  0FF4  0008               	return
  3406  0FF5                     PL3:	
  3407  0FF5  0839               	movf	_z_count+1,w	;volatile
  3408  0FF6  3A80               	xorlw	128
  3409  0FF7  00FF               	movwf	127
  3410  0FF8  3080               	movlw	128
  3411  0FF9  027F               	subwf	127,w
  3412  0FFA  0008               	return
  3413  0FFB                     PL8:	
  3414  0FFB  3A80               	xorlw	128
  3415  0FFC  00FF               	movwf	127
  3416  0FFD  3080               	movlw	128
  3417  0FFE  027F               	subwf	127,w
  3418  0FFF  0008               	return
  3419                           
  3420                           	psect	text446
  3421  00C7                     __ptext446:	
  3422 ;; =============== function _pulse ends ============
  3423                           
  3424                           
  3425 ;; *************** function _wave *****************
  3426 ;; Defined at:
  3427 ;;		line 691 in file "L210004 JCT.c"
  3428 ;; Parameters:    Size  Location     Type
  3429 ;;		None
  3430 ;; Auto vars:     Size  Location     Type
  3431 ;;		None
  3432 ;; Return value:  Size  Location     Type
  3433 ;;		None               void
  3434 ;; Registers used:
  3435 ;;		wreg, status,2, status,0, btemp+1
  3436 ;; Tracked objects:
  3437 ;;		On entry : 1F/0
  3438 ;;		On exit  : 0/0
  3439 ;;		Unchanged: FFE00/0
  3440 ;; Data sizes:     COMMON   BANK0   BANK1   BANK2
  3441 ;;      Params:         0       0       0       0
  3442 ;;      Locals:         0       0       0       0
  3443 ;;      Temps:          0       0       0       0
  3444 ;;      Totals:         0       0       0       0
  3445 ;;Total ram usage:        0 bytes
  3446 ;; Hardware stack levels used:    1
  3447 ;; This function calls:
  3448 ;;		Nothing
  3449 ;; This function is called by:
  3450 ;;		_isr
  3451 ;; This function uses a non-reentrant model
  3452 ;;
  3453  00C7                     _wave:	
  3454                           
  3455                           ;L210004 JCT.c: 692: if(heat_en){
  3456                           
  3457                           ; Regs used in _wave: [wreg+status,2+status,0+btemp+1]
  3458  00C7  083A               	movf	_heat_en,w	;volatile
  3459  00C8  1903               	btfsc	3,2
  3460  00C9  28CD               	goto	i1l2001
  3461                           
  3462                           ;L210004 JCT.c: 693: LATA2 = 1;
  3463  00CA  0022               	movlb	2	; select bank2
  3464  00CB  150C               	bsf	12,2
  3465                           
  3466                           ;L210004 JCT.c: 694: }
  3467  00CC  28CF               	goto	i1l7167
  3468  00CD                     i1l2001:	
  3469                           
  3470                           ;L210004 JCT.c: 695: else{
  3471                           ;L210004 JCT.c: 696: LATA2 = 0;
  3472  00CD  0022               	movlb	2	; select bank2
  3473  00CE  110C               	bcf	12,2
  3474  00CF                     i1l7167:	
  3475                           
  3476                           ;L210004 JCT.c: 697: }
  3477                           ;L210004 JCT.c: 698: if(zone0_en && !zone1_en && !zone2_en && !zone3_en){
  3478  00CF  0020               	movlb	0	; select bank0
  3479  00D0  0853               	movf	_zone0_en,w	;volatile
  3480  00D1  1903               	btfsc	3,2
  3481  00D2  2B0D               	goto	i1l7189
  3482  00D3  08D4               	movf	_zone1_en,f
  3483  00D4  1D03               	skipz
  3484  00D5  2B0D               	goto	i1l7189
  3485  00D6  08D5               	movf	_zone2_en,f
  3486  00D7  1D03               	skipz
  3487  00D8  2B0D               	goto	i1l7189
  3488  00D9  08D6               	movf	_zone3_en,f
  3489  00DA  1D03               	skipz
  3490  00DB  2B0D               	goto	i1l7189
  3491                           
  3492                           ;L210004 JCT.c: 699: if(w_count < 100){
  3493  00DC  0871               	movf	_w_count+1,w	;volatile
  3494  00DD  3A80               	xorlw	128
  3495  00DE  00FF               	movwf	127
  3496  00DF  3080               	movlw	128
  3497  00E0  027F               	subwf	127,w
  3498  00E1  1D03               	skipz
  3499  00E2  28E5               	goto	u571_25
  3500  00E3  3064               	movlw	100
  3501  00E4  0270               	subwf	_w_count,w	;volatile
  3502  00E5                     u571_25:	
  3503  00E5  1803               	skipnc
  3504  00E6  2939               	goto	i1l7247
  3505  00E7                     i1l7177:	
  3506                           
  3507                           ;L210004 JCT.c: 700: LATA7 = 1;
  3508  00E7  0022               	movlb	2	; select bank2
  3509  00E8  178C               	bsf	12,7
  3510  00E9  28EC               	goto	L28
  3511  00EA                     i1l7183:	
  3512                           ;L210004 JCT.c: 704: LATA3 = 0;
  3513                           
  3514                           ;L210004 JCT.c: 703: LATA4 = 0;
  3515                           
  3516                           ;L210004 JCT.c: 702: LATA5 = 0;
  3517                           
  3518                           ;L210004 JCT.c: 701: LATA0 = 1;
  3519                           
  3520                           
  3521                           ;L210004 JCT.c: 708: LATA7 = 0;
  3522  00EA  0022               	movlb	2	; select bank2
  3523  00EB  138C               	bcf	12,7
  3524  00EC                     L28:	
  3525                           
  3526                           ;L210004 JCT.c: 709: LATA0 = 1;
  3527  00EC  140C               	bsf	12,0
  3528                           
  3529                           ;L210004 JCT.c: 710: LATA5 = 0;
  3530  00ED  128C               	bcf	12,5
  3531  00EE                     L34:	
  3532                           
  3533                           ;L210004 JCT.c: 711: LATA4 = 0;
  3534  00EE  120C               	bcf	12,4
  3535  00EF                     L29:	
  3536                           
  3537                           ;L210004 JCT.c: 712: LATA3 = 0;
  3538  00EF  118C               	bcf	12,3
  3539  00F0                     i1l7179:	
  3540                           
  3541                           ;L210004 JCT.c: 705: w_count++;
  3542  00F0  0AF0               	incf	_w_count,f	;volatile
  3543  00F1  1903               	skipnz
  3544  00F2  0AF1               	incf	_w_count+1,f	;volatile
  3545                           
  3546                           ;L210004 JCT.c: 706: }
  3547  00F3  0008               	return
  3548  00F4                     i1l7191:	
  3549                           ;L210004 JCT.c: 707: else if(w_count < 130){
  3550                           
  3551  00F4  0854               	movf	_zone1_en,w	;volatile
  3552  00F5  1903               	btfsc	3,2
  3553  00F6  2B10               	goto	i1l7211
  3554  00F7  08D5               	movf	_zone2_en,f
  3555  00F8  1D03               	skipz
  3556  00F9  2B10               	goto	i1l7211
  3557  00FA  08D6               	movf	_zone3_en,f
  3558  00FB  1D03               	skipz
  3559  00FC  2B10               	goto	i1l7211
  3560                           
  3561                           ;L210004 JCT.c: 720: if(w_count < 100){
  3562  00FD  0871               	movf	_w_count+1,w	;volatile
  3563  00FE  3A80               	xorlw	128
  3564  00FF  00FF               	movwf	127
  3565  0100  3080               	movlw	128
  3566  0101  027F               	subwf	127,w
  3567  0102  1D03               	skipz
  3568  0103  2906               	goto	u577_25
  3569  0104  3064               	movlw	100
  3570  0105  0270               	subwf	_w_count,w	;volatile
  3571  0106                     u577_25:	
  3572  0106  1803               	skipnc
  3573  0107  2939               	goto	i1l7247
  3574  0108                     i1l7199:	
  3575                           
  3576                           ;L210004 JCT.c: 721: LATA7 = 0;
  3577  0108  0022               	movlb	2	; select bank2
  3578  0109  138C               	bcf	12,7
  3579  010A  295C               	goto	L39
  3580  010B                     i1l7213:	
  3581                           ;L210004 JCT.c: 728: else if(w_count < 130){
  3582                           
  3583                           ;L210004 JCT.c: 725: LATA3 = 0;
  3584                           
  3585                           ;L210004 JCT.c: 724: LATA4 = 0;
  3586                           
  3587                           ;L210004 JCT.c: 723: LATA5 = 1;
  3588                           
  3589                           ;L210004 JCT.c: 722: LATA0 = 1;
  3590                           
  3591  010B  08D4               	movf	_zone1_en,f
  3592  010C  1D03               	skipz
  3593  010D  2B13               	goto	i1l7233
  3594  010E  0855               	movf	_zone2_en,w	;volatile
  3595  010F  1903               	btfsc	3,2
  3596  0110  2B13               	goto	i1l7233
  3597  0111  08D6               	movf	_zone3_en,f
  3598  0112  1D03               	skipz
  3599  0113  2B13               	goto	i1l7233
  3600                           
  3601                           ;L210004 JCT.c: 741: if(w_count < 100){
  3602  0114  0871               	movf	_w_count+1,w	;volatile
  3603  0115  3A80               	xorlw	128
  3604  0116  00FF               	movwf	127
  3605  0117  3080               	movlw	128
  3606  0118  027F               	subwf	127,w
  3607  0119  1D03               	skipz
  3608  011A  291D               	goto	u583_25
  3609  011B  3064               	movlw	100
  3610  011C  0270               	subwf	_w_count,w	;volatile
  3611  011D                     u583_25:	
  3612  011D  1803               	skipnc
  3613  011E  2939               	goto	i1l7247
  3614  011F                     i1l7221:	
  3615                           
  3616                           ;L210004 JCT.c: 742: LATA7 = 0;
  3617  011F  0022               	movlb	2	; select bank2
  3618  0120  138C               	bcf	12,7
  3619  0121  2982               	goto	L40
  3620  0122                     i1l7235:	
  3621                           ;L210004 JCT.c: 749: else if(w_count < 130){
  3622                           
  3623                           ;L210004 JCT.c: 746: LATA3 = 0;
  3624                           
  3625                           ;L210004 JCT.c: 745: LATA4 = 1;
  3626                           
  3627                           ;L210004 JCT.c: 744: LATA5 = 0;
  3628                           
  3629                           ;L210004 JCT.c: 743: LATA0 = 1;
  3630                           
  3631  0122  08D4               	movf	_zone1_en,f
  3632  0123  1D03               	skipz
  3633  0124  2B16               	goto	i1l7255
  3634  0125  08D5               	movf	_zone2_en,f
  3635  0126  1D03               	skipz
  3636  0127  2B16               	goto	i1l7255
  3637  0128  0856               	movf	_zone3_en,w	;volatile
  3638  0129  1903               	btfsc	3,2
  3639  012A  2B16               	goto	i1l7255
  3640                           
  3641                           ;L210004 JCT.c: 762: if(w_count < 100){
  3642  012B  0871               	movf	_w_count+1,w	;volatile
  3643  012C  3A80               	xorlw	128
  3644  012D  00FF               	movwf	127
  3645  012E  3080               	movlw	128
  3646  012F  027F               	subwf	127,w
  3647  0130  1D03               	skipz
  3648  0131  2934               	goto	u589_25
  3649  0132  3064               	movlw	100
  3650  0133  0270               	subwf	_w_count,w	;volatile
  3651  0134                     u589_25:	
  3652  0134  1803               	skipnc
  3653  0135  2939               	goto	i1l7247
  3654  0136                     i1l7243:	
  3655                           
  3656                           ;L210004 JCT.c: 763: LATA7 = 0;
  3657  0136  0022               	movlb	2	; select bank2
  3658  0137  138C               	bcf	12,7
  3659  0138  29A3               	goto	L18
  3660  0139                     i1l7247:	
  3661                           ;L210004 JCT.c: 767: LATA3 = 1;
  3662                           
  3663                           ;L210004 JCT.c: 766: LATA4 = 0;
  3664                           
  3665                           ;L210004 JCT.c: 765: LATA5 = 0;
  3666                           
  3667                           ;L210004 JCT.c: 764: LATA0 = 1;
  3668                           
  3669                           
  3670                           ;L210004 JCT.c: 770: else if(w_count < 130){
  3671  0139  0871               	movf	_w_count+1,w	;volatile
  3672  013A  318F  27FB  3180   	fcall	PL8	;call to abstracted procedure
  3673  013D  1D03               	skipz
  3674  013E  2B08               	goto	u678_25
  3675  013F  3082               	movlw	130
  3676  0140  2B07               	goto	L31
  3677  0141                     i1l7261:	
  3678  0141  08D6               	movf	_zone3_en,f
  3679  0142  1D03               	skipz
  3680  0143  2B1F               	goto	i1l7289
  3681                           
  3682                           ;L210004 JCT.c: 783: if(w_count < 100){
  3683  0144  0871               	movf	_w_count+1,w	;volatile
  3684  0145  3A80               	xorlw	128
  3685  0146  00FF               	movwf	127
  3686  0147  3080               	movlw	128
  3687  0148  027F               	subwf	127,w
  3688  0149  1D03               	skipz
  3689  014A  294D               	goto	u595_25
  3690  014B  3064               	movlw	100
  3691  014C  0270               	subwf	_w_count,w	;volatile
  3692  014D                     u595_25:	
  3693  014D  1C03               	btfss	3,0
  3694  014E  28E7               	goto	i1l7177
  3695                           
  3696                           ;L210004 JCT.c: 791: else if(w_count < 200){
  3697  014F  0871               	movf	_w_count+1,w	;volatile
  3698  0150  3A80               	xorlw	128
  3699  0151  00FF               	movwf	127
  3700  0152  3080               	movlw	128
  3701  0153  027F               	subwf	127,w
  3702  0154  1D03               	skipz
  3703  0155  2958               	goto	u596_25
  3704  0156  30C8               	movlw	200
  3705  0157  0270               	subwf	_w_count,w	;volatile
  3706  0158                     u596_25:	
  3707  0158  1803               	skipnc
  3708  0159  295F               	goto	i1l7275
  3709  015A                     i1l7271:	
  3710                           
  3711                           ;L210004 JCT.c: 792: LATA7 = 1;
  3712  015A  0022               	movlb	2	; select bank2
  3713  015B  178C               	bsf	12,7
  3714  015C                     L39:	
  3715                           
  3716                           ;L210004 JCT.c: 793: LATA0 = 1;
  3717  015C  140C               	bsf	12,0
  3718                           
  3719                           ;L210004 JCT.c: 794: LATA5 = 1;
  3720  015D  168C               	bsf	12,5
  3721  015E  28EE               	goto	L34
  3722  015F                     i1l7275:	
  3723                           ;L210004 JCT.c: 796: LATA3 = 0;
  3724                           
  3725                           ;L210004 JCT.c: 795: LATA4 = 0;
  3726                           
  3727                           
  3728                           ;L210004 JCT.c: 799: else if(w_count < 300){
  3729  015F  23C0  3180         	fcall	PL5	;call to abstracted procedure
  3730  0161  1C03               	btfss	3,0
  3731  0162  2908               	goto	i1l7199
  3732  0163  2A15               	goto	L45
  3733  0164                     i1l7293:	
  3734                           ;L210004 JCT.c: 807: else if(w_count < 330){
  3735                           
  3736  0164  0855               	movf	_zone2_en,w	;volatile
  3737  0165  1903               	btfsc	3,2
  3738  0166  2B25               	goto	i1l7323
  3739  0167  08D6               	movf	_zone3_en,f
  3740  0168  1D03               	skipz
  3741  0169  2B25               	goto	i1l7323
  3742                           
  3743                           ;L210004 JCT.c: 820: if(w_count < 100){
  3744  016A  0871               	movf	_w_count+1,w	;volatile
  3745  016B  3A80               	xorlw	128
  3746  016C  00FF               	movwf	127
  3747  016D  3080               	movlw	128
  3748  016E  027F               	subwf	127,w
  3749  016F  1D03               	skipz
  3750  0170  2973               	goto	u603_25
  3751  0171  3064               	movlw	100
  3752  0172  0270               	subwf	_w_count,w	;volatile
  3753  0173                     u603_25:	
  3754  0173  1C03               	btfss	3,0
  3755  0174  28E7               	goto	i1l7177
  3756                           
  3757                           ;L210004 JCT.c: 828: else if(w_count < 200){
  3758  0175  0871               	movf	_w_count+1,w	;volatile
  3759  0176  3A80               	xorlw	128
  3760  0177  00FF               	movwf	127
  3761  0178  3080               	movlw	128
  3762  0179  027F               	subwf	127,w
  3763  017A  1D03               	skipz
  3764  017B  297E               	goto	u604_25
  3765  017C  30C8               	movlw	200
  3766  017D  0270               	subwf	_w_count,w	;volatile
  3767  017E                     u604_25:	
  3768  017E  1803               	skipnc
  3769  017F  29C8               	goto	i1l7377
  3770  0180                     i1l7305:	
  3771                           
  3772                           ;L210004 JCT.c: 829: LATA7 = 1;
  3773  0180  0022               	movlb	2	; select bank2
  3774  0181  178C               	bsf	12,7
  3775  0182                     L40:	
  3776                           
  3777                           ;L210004 JCT.c: 830: LATA0 = 1;
  3778  0182  140C               	bsf	12,0
  3779                           
  3780                           ;L210004 JCT.c: 831: LATA5 = 0;
  3781  0183  128C               	bcf	12,5
  3782  0184  2A43               	goto	L33
  3783  0185                     i1l7327:	
  3784                           ;L210004 JCT.c: 844: else if(w_count < 330){
  3785                           
  3786                           ;L210004 JCT.c: 836: else if(w_count < 300){
  3787                           
  3788                           ;L210004 JCT.c: 833: LATA3 = 0;
  3789                           
  3790                           ;L210004 JCT.c: 832: LATA4 = 1;
  3791                           
  3792  0185  08D5               	movf	_zone2_en,f
  3793  0186  1D03               	skipz
  3794  0187  2B2B               	goto	i1l7357
  3795  0188  0856               	movf	_zone3_en,w	;volatile
  3796  0189  1903               	btfsc	3,2
  3797  018A  2B2B               	goto	i1l7357
  3798                           
  3799                           ;L210004 JCT.c: 857: if(w_count < 100){
  3800  018B  0871               	movf	_w_count+1,w	;volatile
  3801  018C  3A80               	xorlw	128
  3802  018D  00FF               	movwf	127
  3803  018E  3080               	movlw	128
  3804  018F  027F               	subwf	127,w
  3805  0190  1D03               	skipz
  3806  0191  2994               	goto	u611_25
  3807  0192  3064               	movlw	100
  3808  0193  0270               	subwf	_w_count,w	;volatile
  3809  0194                     u611_25:	
  3810  0194  1C03               	btfss	3,0
  3811  0195  28E7               	goto	i1l7177
  3812                           
  3813                           ;L210004 JCT.c: 865: else if(w_count < 200){
  3814  0196  0871               	movf	_w_count+1,w	;volatile
  3815  0197  3A80               	xorlw	128
  3816  0198  00FF               	movwf	127
  3817  0199  3080               	movlw	128
  3818  019A  027F               	subwf	127,w
  3819  019B  1D03               	skipz
  3820  019C  299F               	goto	u612_25
  3821  019D  30C8               	movlw	200
  3822  019E  0270               	subwf	_w_count,w	;volatile
  3823  019F                     u612_25:	
  3824  019F  1803               	skipnc
  3825  01A0  2A11               	goto	i1l7445
  3826                           
  3827                           ;L210004 JCT.c: 866: LATA7 = 1;
  3828  01A1  0022               	movlb	2	; select bank2
  3829  01A2  178C               	bsf	12,7
  3830  01A3                     L18:	
  3831                           
  3832                           ;L210004 JCT.c: 867: LATA0 = 1;
  3833  01A3  140C               	bsf	12,0
  3834                           
  3835                           ;L210004 JCT.c: 868: LATA5 = 0;
  3836  01A4  128C               	bcf	12,5
  3837  01A5  2A84               	goto	L36
  3838  01A6                     i1l7359:	
  3839                           ;L210004 JCT.c: 881: else if(w_count < 330){
  3840                           
  3841                           ;L210004 JCT.c: 873: else if(w_count < 300){
  3842                           
  3843                           ;L210004 JCT.c: 870: LATA3 = 1;
  3844                           
  3845                           ;L210004 JCT.c: 869: LATA4 = 0;
  3846                           
  3847  01A6  0854               	movf	_zone1_en,w	;volatile
  3848  01A7  1903               	btfsc	3,2
  3849  01A8  2B2E               	goto	i1l7391
  3850  01A9  0855               	movf	_zone2_en,w	;volatile
  3851  01AA  1903               	btfsc	3,2
  3852  01AB  2B2E               	goto	i1l7391
  3853  01AC  08D6               	movf	_zone3_en,f
  3854  01AD  1D03               	skipz
  3855  01AE  2B2E               	goto	i1l7391
  3856                           
  3857                           ;L210004 JCT.c: 894: if(w_count < 100){
  3858  01AF  0871               	movf	_w_count+1,w	;volatile
  3859  01B0  3A80               	xorlw	128
  3860  01B1  00FF               	movwf	127
  3861  01B2  3080               	movlw	128
  3862  01B3  027F               	subwf	127,w
  3863  01B4  1D03               	skipz
  3864  01B5  29B8               	goto	u619_25
  3865  01B6  3064               	movlw	100
  3866  01B7  0270               	subwf	_w_count,w	;volatile
  3867  01B8                     u619_25:	
  3868  01B8  1C03               	btfss	3,0
  3869  01B9  2908               	goto	i1l7199
  3870                           
  3871                           ;L210004 JCT.c: 902: else if(w_count < 200){
  3872  01BA  0871               	movf	_w_count+1,w	;volatile
  3873  01BB  3A80               	xorlw	128
  3874  01BC  00FF               	movwf	127
  3875  01BD  3080               	movlw	128
  3876  01BE  027F               	subwf	127,w
  3877  01BF  1D03               	skipz
  3878  01C0  29C3               	goto	u620_25
  3879  01C1  30C8               	movlw	200
  3880  01C2  0270               	subwf	_w_count,w	;volatile
  3881  01C3                     u620_25:	
  3882  01C3  1803               	skipnc
  3883  01C4  29C8               	goto	i1l7377
  3884  01C5                     i1l7373:	
  3885                           
  3886                           ;L210004 JCT.c: 903: LATA7 = 0;
  3887  01C5  0022               	movlb	2	; select bank2
  3888  01C6  138C               	bcf	12,7
  3889  01C7  2A41               	goto	L35
  3890  01C8                     i1l7377:	
  3891                           ;L210004 JCT.c: 907: LATA3 = 0;
  3892                           
  3893                           ;L210004 JCT.c: 906: LATA4 = 1;
  3894                           
  3895                           ;L210004 JCT.c: 905: LATA5 = 1;
  3896                           
  3897                           ;L210004 JCT.c: 904: LATA0 = 1;
  3898                           
  3899                           
  3900                           ;L210004 JCT.c: 910: else if(w_count < 300){
  3901  01C8  23C0  3180         	fcall	PL5	;call to abstracted procedure
  3902  01CA  1C03               	btfss	3,0
  3903  01CB  291F               	goto	i1l7221
  3904  01CC  2A15               	goto	L45
  3905  01CD                     i1l7393:	
  3906                           ;L210004 JCT.c: 918: else if(w_count < 330){
  3907                           
  3908  01CD  0854               	movf	_zone1_en,w	;volatile
  3909  01CE  1903               	btfsc	3,2
  3910  01CF  2B31               	goto	i1l7425
  3911  01D0  08D5               	movf	_zone2_en,f
  3912  01D1  1D03               	skipz
  3913  01D2  2B31               	goto	i1l7425
  3914  01D3  0856               	movf	_zone3_en,w	;volatile
  3915  01D4  1903               	btfsc	3,2
  3916  01D5  2B31               	goto	i1l7425
  3917                           
  3918                           ;L210004 JCT.c: 931: if(w_count < 100){
  3919  01D6  0871               	movf	_w_count+1,w	;volatile
  3920  01D7  3A80               	xorlw	128
  3921  01D8  00FF               	movwf	127
  3922  01D9  3080               	movlw	128
  3923  01DA  027F               	subwf	127,w
  3924  01DB  1D03               	skipz
  3925  01DC  29DF               	goto	u627_25
  3926  01DD  3064               	movlw	100
  3927  01DE  0270               	subwf	_w_count,w	;volatile
  3928  01DF                     u627_25:	
  3929  01DF  1C03               	btfss	3,0
  3930  01E0  2908               	goto	i1l7199
  3931                           
  3932                           ;L210004 JCT.c: 939: else if(w_count < 200){
  3933  01E1  0871               	movf	_w_count+1,w	;volatile
  3934  01E2  3A80               	xorlw	128
  3935  01E3  00FF               	movwf	127
  3936  01E4  3080               	movlw	128
  3937  01E5  027F               	subwf	127,w
  3938  01E6  1D03               	skipz
  3939  01E7  29EA               	goto	u628_25
  3940  01E8  30C8               	movlw	200
  3941  01E9  0270               	subwf	_w_count,w	;volatile
  3942  01EA                     u628_25:	
  3943  01EA  1803               	skipnc
  3944  01EB  2A11               	goto	i1l7445
  3945  01EC                     i1l7407:	
  3946                           
  3947                           ;L210004 JCT.c: 940: LATA7 = 0;
  3948  01EC  0022               	movlb	2	; select bank2
  3949  01ED  138C               	bcf	12,7
  3950  01EE  2A82               	goto	L41
  3951  01EF                     i1l7427:	
  3952                           ;L210004 JCT.c: 955: else if(w_count < 330){
  3953                           
  3954                           ;L210004 JCT.c: 947: else if(w_count < 300){
  3955                           
  3956                           ;L210004 JCT.c: 944: LATA3 = 1;
  3957                           
  3958                           ;L210004 JCT.c: 943: LATA4 = 0;
  3959                           
  3960                           ;L210004 JCT.c: 942: LATA5 = 1;
  3961                           
  3962                           ;L210004 JCT.c: 941: LATA0 = 1;
  3963                           
  3964  01EF  08D4               	movf	_zone1_en,f
  3965  01F0  1D03               	skipz
  3966  01F1  2B34               	goto	i1l7459
  3967  01F2  0855               	movf	_zone2_en,w	;volatile
  3968  01F3  1903               	btfsc	3,2
  3969  01F4  2B34               	goto	i1l7459
  3970  01F5  0856               	movf	_zone3_en,w	;volatile
  3971  01F6  1903               	btfsc	3,2
  3972  01F7  2B34               	goto	i1l7459
  3973                           
  3974                           ;L210004 JCT.c: 968: if(w_count < 100){
  3975  01F8  0871               	movf	_w_count+1,w	;volatile
  3976  01F9  3A80               	xorlw	128
  3977  01FA  00FF               	movwf	127
  3978  01FB  3080               	movlw	128
  3979  01FC  027F               	subwf	127,w
  3980  01FD  1D03               	skipz
  3981  01FE  2A01               	goto	u635_25
  3982  01FF  3064               	movlw	100
  3983  0200  0270               	subwf	_w_count,w	;volatile
  3984  0201                     u635_25:	
  3985  0201  1C03               	btfss	3,0
  3986  0202  291F               	goto	i1l7221
  3987                           
  3988                           ;L210004 JCT.c: 976: else if(w_count < 200){
  3989  0203  0871               	movf	_w_count+1,w	;volatile
  3990  0204  3A80               	xorlw	128
  3991  0205  00FF               	movwf	127
  3992  0206  3080               	movlw	128
  3993  0207  027F               	subwf	127,w
  3994  0208  1D03               	skipz
  3995  0209  2A0C               	goto	u636_25
  3996  020A  30C8               	movlw	200
  3997  020B  0270               	subwf	_w_count,w	;volatile
  3998  020C                     u636_25:	
  3999  020C  1803               	skipnc
  4000  020D  2A11               	goto	i1l7445
  4001  020E                     i1l7441:	
  4002                           
  4003                           ;L210004 JCT.c: 977: LATA7 = 0;
  4004  020E  0022               	movlb	2	; select bank2
  4005  020F  138C               	bcf	12,7
  4006  0210  2ABB               	goto	L37
  4007  0211                     i1l7445:	
  4008                           ;L210004 JCT.c: 981: LATA3 = 1;
  4009                           
  4010                           ;L210004 JCT.c: 980: LATA4 = 1;
  4011                           
  4012                           ;L210004 JCT.c: 979: LATA5 = 0;
  4013                           
  4014                           ;L210004 JCT.c: 978: LATA0 = 1;
  4015                           
  4016                           
  4017                           ;L210004 JCT.c: 984: else if(w_count < 300){
  4018  0211  23C0  3180         	fcall	PL5	;call to abstracted procedure
  4019  0213  1C03               	btfss	3,0
  4020  0214  2936               	goto	i1l7243
  4021  0215                     L45:	
  4022                           
  4023                           ;L210004 JCT.c: 992: else if(w_count < 330){
  4024  0215  0871               	movf	_w_count+1,w	;volatile
  4025  0216  3A80               	xorlw	128
  4026  0217  00FF               	movwf	127
  4027  0218  3081               	movlw	129
  4028  0219  027F               	subwf	127,w
  4029  021A  1D03               	skipz
  4030  021B  2B08               	goto	u678_25
  4031  021C  304A               	movlw	74
  4032  021D  2B07               	goto	L31
  4033  021E                     i1l7467:	
  4034                           
  4035                           ;L210004 JCT.c: 1005: if(w_count < 100){
  4036  021E  0871               	movf	_w_count+1,w	;volatile
  4037  021F  3A80               	xorlw	128
  4038  0220  00FF               	movwf	127
  4039  0221  3080               	movlw	128
  4040  0222  027F               	subwf	127,w
  4041  0223  1D03               	skipz
  4042  0224  2A27               	goto	u643_25
  4043  0225  3064               	movlw	100
  4044  0226  0270               	subwf	_w_count,w	;volatile
  4045  0227                     u643_25:	
  4046  0227  1C03               	btfss	3,0
  4047  0228  28E7               	goto	i1l7177
  4048                           
  4049                           ;L210004 JCT.c: 1013: else if(w_count < 200){
  4050  0229  0871               	movf	_w_count+1,w	;volatile
  4051  022A  3A80               	xorlw	128
  4052  022B  00FF               	movwf	127
  4053  022C  3080               	movlw	128
  4054  022D  027F               	subwf	127,w
  4055  022E  1D03               	skipz
  4056  022F  2A32               	goto	u644_25
  4057  0230  30C8               	movlw	200
  4058  0231  0270               	subwf	_w_count,w	;volatile
  4059  0232                     u644_25:	
  4060  0232  1C03               	btfss	3,0
  4061  0233  295A               	goto	i1l7271
  4062                           
  4063                           ;L210004 JCT.c: 1021: else if(w_count < 300){
  4064  0234  0871               	movf	_w_count+1,w	;volatile
  4065  0235  3A80               	xorlw	128
  4066  0236  00FF               	movwf	127
  4067  0237  3081               	movlw	129
  4068  0238  027F               	subwf	127,w
  4069  0239  1D03               	skipz
  4070  023A  2A3D               	goto	u645_25
  4071  023B  302C               	movlw	44
  4072  023C  0270               	subwf	_w_count,w	;volatile
  4073  023D                     u645_25:	
  4074  023D  1803               	skipnc
  4075  023E  2A45               	goto	i1l7485
  4076  023F                     i1l7481:	
  4077                           
  4078                           ;L210004 JCT.c: 1022: LATA7 = 1;
  4079  023F  0022               	movlb	2	; select bank2
  4080  0240  178C               	bsf	12,7
  4081  0241                     L35:	
  4082                           
  4083                           ;L210004 JCT.c: 1023: LATA0 = 1;
  4084  0241  140C               	bsf	12,0
  4085                           
  4086                           ;L210004 JCT.c: 1024: LATA5 = 1;
  4087  0242  168C               	bsf	12,5
  4088  0243                     L33:	
  4089                           
  4090                           ;L210004 JCT.c: 1025: LATA4 = 1;
  4091  0243  160C               	bsf	12,4
  4092  0244  28EF               	goto	L29
  4093  0245                     i1l7485:	
  4094                           ;L210004 JCT.c: 1026: LATA3 = 0;
  4095                           
  4096                           
  4097                           ;L210004 JCT.c: 1029: else if(w_count < 400){
  4098  0245  0871               	movf	_w_count+1,w	;volatile
  4099  0246  3A80               	xorlw	128
  4100  0247  00FF               	movwf	127
  4101  0248  3081               	movlw	129
  4102  0249  027F               	subwf	127,w
  4103  024A  1D03               	skipz
  4104  024B  2A4E               	goto	u646_25
  4105  024C  3090               	movlw	144
  4106  024D  0270               	subwf	_w_count,w	;volatile
  4107  024E                     u646_25:	
  4108  024E  1C03               	btfss	3,0
  4109  024F  29C5               	goto	i1l7373
  4110                           
  4111                           ;L210004 JCT.c: 1037: else if(w_count < 500){
  4112  0250  0871               	movf	_w_count+1,w	;volatile
  4113  0251  3A80               	xorlw	128
  4114  0252  00FF               	movwf	127
  4115  0253  3081               	movlw	129
  4116  0254  027F               	subwf	127,w
  4117  0255  1D03               	skipz
  4118  0256  2A59               	goto	u647_25
  4119  0257  30F4               	movlw	244
  4120  0258  0270               	subwf	_w_count,w	;volatile
  4121  0259                     u647_25:	
  4122  0259  1C03               	btfss	3,0
  4123  025A  291F               	goto	i1l7221
  4124  025B  2B01               	goto	L46
  4125  025C                     i1l7511:	
  4126                           ;L210004 JCT.c: 1045: else if(w_count < 530){
  4127                           
  4128  025C  0856               	movf	_zone3_en,w	;volatile
  4129  025D  1903               	btfsc	3,2
  4130  025E  2B49               	goto	i1l7551
  4131                           
  4132                           ;L210004 JCT.c: 1058: if(w_count < 100){
  4133  025F  0871               	movf	_w_count+1,w	;volatile
  4134  0260  3A80               	xorlw	128
  4135  0261  00FF               	movwf	127
  4136  0262  3080               	movlw	128
  4137  0263  027F               	subwf	127,w
  4138  0264  1D03               	skipz
  4139  0265  2A68               	goto	u653_25
  4140  0266  3064               	movlw	100
  4141  0267  0270               	subwf	_w_count,w	;volatile
  4142  0268                     u653_25:	
  4143  0268  1C03               	btfss	3,0
  4144  0269  28E7               	goto	i1l7177
  4145                           
  4146                           ;L210004 JCT.c: 1066: else if(w_count < 200){
  4147  026A  0871               	movf	_w_count+1,w	;volatile
  4148  026B  3A80               	xorlw	128
  4149  026C  00FF               	movwf	127
  4150  026D  3080               	movlw	128
  4151  026E  027F               	subwf	127,w
  4152  026F  1D03               	skipz
  4153  0270  2A73               	goto	u654_25
  4154  0271  30C8               	movlw	200
  4155  0272  0270               	subwf	_w_count,w	;volatile
  4156  0273                     u654_25:	
  4157  0273  1C03               	btfss	3,0
  4158  0274  295A               	goto	i1l7271
  4159                           
  4160                           ;L210004 JCT.c: 1074: else if(w_count < 300){
  4161  0275  0871               	movf	_w_count+1,w	;volatile
  4162  0276  3A80               	xorlw	128
  4163  0277  00FF               	movwf	127
  4164  0278  3081               	movlw	129
  4165  0279  027F               	subwf	127,w
  4166  027A  1D03               	skipz
  4167  027B  2A7E               	goto	u655_25
  4168  027C  302C               	movlw	44
  4169  027D  0270               	subwf	_w_count,w	;volatile
  4170  027E                     u655_25:	
  4171  027E  1803               	skipnc
  4172  027F  2A86               	goto	i1l7531
  4173                           
  4174                           ;L210004 JCT.c: 1075: LATA7 = 1;
  4175  0280  0022               	movlb	2	; select bank2
  4176  0281  178C               	bsf	12,7
  4177  0282                     L41:	
  4178                           
  4179                           ;L210004 JCT.c: 1076: LATA0 = 1;
  4180  0282  140C               	bsf	12,0
  4181                           
  4182                           ;L210004 JCT.c: 1077: LATA5 = 1;
  4183  0283  168C               	bsf	12,5
  4184  0284                     L36:	
  4185                           
  4186                           ;L210004 JCT.c: 1078: LATA4 = 0;
  4187  0284  120C               	bcf	12,4
  4188  0285  2B8F               	goto	L27
  4189  0286                     i1l7531:	
  4190                           ;L210004 JCT.c: 1079: LATA3 = 1;
  4191                           
  4192                           
  4193                           ;L210004 JCT.c: 1082: else if(w_count < 400){
  4194  0286  0871               	movf	_w_count+1,w	;volatile
  4195  0287  3A80               	xorlw	128
  4196  0288  00FF               	movwf	127
  4197  0289  3081               	movlw	129
  4198  028A  027F               	subwf	127,w
  4199  028B  1D03               	skipz
  4200  028C  2A8F               	goto	u656_25
  4201  028D  3090               	movlw	144
  4202  028E  0270               	subwf	_w_count,w	;volatile
  4203  028F                     u656_25:	
  4204  028F  1C03               	btfss	3,0
  4205  0290  29EC               	goto	i1l7407
  4206  0291  2AF6               	goto	L47
  4207  0292                     i1l7555:	
  4208                           ;L210004 JCT.c: 1098: else if(w_count < 530){
  4209                           
  4210                           ;L210004 JCT.c: 1090: else if(w_count < 500){
  4211                           
  4212  0292  0855               	movf	_zone2_en,w	;volatile
  4213  0293  1903               	btfsc	3,2
  4214  0294  2B4F               	goto	i1l7597
  4215  0295  0856               	movf	_zone3_en,w	;volatile
  4216  0296  1903               	btfsc	3,2
  4217  0297  2B4F               	goto	i1l7597
  4218                           
  4219                           ;L210004 JCT.c: 1111: if(w_count < 100){
  4220  0298  0871               	movf	_w_count+1,w	;volatile
  4221  0299  3A80               	xorlw	128
  4222  029A  00FF               	movwf	127
  4223  029B  3080               	movlw	128
  4224  029C  027F               	subwf	127,w
  4225  029D  1D03               	skipz
  4226  029E  2AA1               	goto	u663_25
  4227  029F  3064               	movlw	100
  4228  02A0  0270               	subwf	_w_count,w	;volatile
  4229  02A1                     u663_25:	
  4230  02A1  1C03               	btfss	3,0
  4231  02A2  28E7               	goto	i1l7177
  4232                           
  4233                           ;L210004 JCT.c: 1119: else if(w_count < 200){
  4234  02A3  0871               	movf	_w_count+1,w	;volatile
  4235  02A4  3A80               	xorlw	128
  4236  02A5  00FF               	movwf	127
  4237  02A6  3080               	movlw	128
  4238  02A7  027F               	subwf	127,w
  4239  02A8  1D03               	skipz
  4240  02A9  2AAC               	goto	u664_25
  4241  02AA  30C8               	movlw	200
  4242  02AB  0270               	subwf	_w_count,w	;volatile
  4243  02AC                     u664_25:	
  4244  02AC  1C03               	btfss	3,0
  4245  02AD  2980               	goto	i1l7305
  4246                           
  4247                           ;L210004 JCT.c: 1127: else if(w_count < 300){
  4248  02AE  0871               	movf	_w_count+1,w	;volatile
  4249  02AF  3A80               	xorlw	128
  4250  02B0  00FF               	movwf	127
  4251  02B1  3081               	movlw	129
  4252  02B2  027F               	subwf	127,w
  4253  02B3  1D03               	skipz
  4254  02B4  2AB7               	goto	u665_25
  4255  02B5  302C               	movlw	44
  4256  02B6  0270               	subwf	_w_count,w	;volatile
  4257  02B7                     u665_25:	
  4258  02B7  1803               	skipnc
  4259  02B8  2AEB               	goto	i1l7623
  4260                           
  4261                           ;L210004 JCT.c: 1128: LATA7 = 1;
  4262  02B9  0022               	movlb	2	; select bank2
  4263  02BA  178C               	bsf	12,7
  4264  02BB                     L37:	
  4265                           
  4266                           ;L210004 JCT.c: 1129: LATA0 = 1;
  4267  02BB  140C               	bsf	12,0
  4268                           
  4269                           ;L210004 JCT.c: 1130: LATA5 = 0;
  4270  02BC  128C               	bcf	12,5
  4271  02BD  2B8E               	goto	L30
  4272  02BE                     i1l7599:	
  4273                           ;L210004 JCT.c: 1151: else if(w_count < 530){
  4274                           
  4275                           ;L210004 JCT.c: 1143: else if(w_count < 500){
  4276                           
  4277                           ;L210004 JCT.c: 1135: else if(w_count < 400){
  4278                           
  4279                           ;L210004 JCT.c: 1132: LATA3 = 1;
  4280                           
  4281                           ;L210004 JCT.c: 1131: LATA4 = 1;
  4282                           
  4283  02BE  0854               	movf	_zone1_en,w	;volatile
  4284  02BF  1903               	btfsc	3,2
  4285  02C0  2B52               	goto	i1l7643
  4286  02C1  0855               	movf	_zone2_en,w	;volatile
  4287  02C2  1903               	btfsc	3,2
  4288  02C3  2B52               	goto	i1l7643
  4289  02C4  0856               	movf	_zone3_en,w	;volatile
  4290  02C5  1903               	btfsc	3,2
  4291  02C6  2B52               	goto	i1l7643
  4292                           
  4293                           ;L210004 JCT.c: 1164: if(w_count < 100){
  4294  02C7  0871               	movf	_w_count+1,w	;volatile
  4295  02C8  3A80               	xorlw	128
  4296  02C9  00FF               	movwf	127
  4297  02CA  3080               	movlw	128
  4298  02CB  027F               	subwf	127,w
  4299  02CC  1D03               	skipz
  4300  02CD  2AD0               	goto	u673_25
  4301  02CE  3064               	movlw	100
  4302  02CF  0270               	subwf	_w_count,w	;volatile
  4303  02D0                     u673_25:	
  4304  02D0  1C03               	btfss	3,0
  4305  02D1  2908               	goto	i1l7199
  4306                           
  4307                           ;L210004 JCT.c: 1172: else if(w_count < 200){
  4308  02D2  0871               	movf	_w_count+1,w	;volatile
  4309  02D3  3A80               	xorlw	128
  4310  02D4  00FF               	movwf	127
  4311  02D5  3080               	movlw	128
  4312  02D6  027F               	subwf	127,w
  4313  02D7  1D03               	skipz
  4314  02D8  2ADB               	goto	u674_25
  4315  02D9  30C8               	movlw	200
  4316  02DA  0270               	subwf	_w_count,w	;volatile
  4317  02DB                     u674_25:	
  4318  02DB  1C03               	btfss	3,0
  4319  02DC  29C5               	goto	i1l7373
  4320                           
  4321                           ;L210004 JCT.c: 1180: else if(w_count < 300){
  4322  02DD  0871               	movf	_w_count+1,w	;volatile
  4323  02DE  3A80               	xorlw	128
  4324  02DF  00FF               	movwf	127
  4325  02E0  3081               	movlw	129
  4326  02E1  027F               	subwf	127,w
  4327  02E2  1D03               	skipz
  4328  02E3  2AE6               	goto	u675_25
  4329  02E4  302C               	movlw	44
  4330  02E5  0270               	subwf	_w_count,w	;volatile
  4331  02E6                     u675_25:	
  4332  02E6  1803               	skipnc
  4333  02E7  2AEB               	goto	i1l7623
  4334  02E8                     i1l7619:	
  4335                           
  4336                           ;L210004 JCT.c: 1181: LATA7 = 0;
  4337  02E8  0022               	movlb	2	; select bank2
  4338  02E9  138C               	bcf	12,7
  4339  02EA  2B8C               	goto	L38
  4340  02EB                     i1l7623:	
  4341                           ;L210004 JCT.c: 1185: LATA3 = 1;
  4342                           
  4343                           ;L210004 JCT.c: 1184: LATA4 = 1;
  4344                           
  4345                           ;L210004 JCT.c: 1183: LATA5 = 1;
  4346                           
  4347                           ;L210004 JCT.c: 1182: LATA0 = 1;
  4348                           
  4349                           
  4350                           ;L210004 JCT.c: 1188: else if(w_count < 400){
  4351  02EB  0871               	movf	_w_count+1,w	;volatile
  4352  02EC  3A80               	xorlw	128
  4353  02ED  00FF               	movwf	127
  4354  02EE  3081               	movlw	129
  4355  02EF  027F               	subwf	127,w
  4356  02F0  1D03               	skipz
  4357  02F1  2AF4               	goto	u676_25
  4358  02F2  3090               	movlw	144
  4359  02F3  0270               	subwf	_w_count,w	;volatile
  4360  02F4                     u676_25:	
  4361  02F4  1C03               	btfss	3,0
  4362  02F5  2A0E               	goto	i1l7441
  4363  02F6                     L47:	
  4364                           
  4365                           ;L210004 JCT.c: 1196: else if(w_count < 500){
  4366  02F6  0871               	movf	_w_count+1,w	;volatile
  4367  02F7  3A80               	xorlw	128
  4368  02F8  00FF               	movwf	127
  4369  02F9  3081               	movlw	129
  4370  02FA  027F               	subwf	127,w
  4371  02FB  1D03               	skipz
  4372  02FC  2AFF               	goto	u677_25
  4373  02FD  30F4               	movlw	244
  4374  02FE  0270               	subwf	_w_count,w	;volatile
  4375  02FF                     u677_25:	
  4376  02FF  1C03               	btfss	3,0
  4377  0300  2936               	goto	i1l7243
  4378  0301                     L46:	
  4379                           
  4380                           ;L210004 JCT.c: 1204: else if(w_count < 530){
  4381  0301  0871               	movf	_w_count+1,w	;volatile
  4382  0302  23CA  3180         	fcall	PL13	;call to abstracted procedure
  4383  0304  1D03               	skipz
  4384  0305  2B08               	goto	u678_25
  4385  0306  3012               	movlw	18
  4386  0307                     L31:	
  4387  0307  0270               	subwf	_w_count,w	;volatile
  4388  0308                     u678_25:	
  4389  0308  1C03               	btfss	3,0
  4390  0309  28EA               	goto	i1l7183
  4391                           
  4392                           ;L210004 JCT.c: 715: else{
  4393                           ;L210004 JCT.c: 716: w_count = 0;
  4394  030A  01F0               	clrf	_w_count	;volatile
  4395  030B  01F1               	clrf	_w_count+1	;volatile
  4396  030C  0008               	return
  4397  030D                     i1l7189:	
  4398                           
  4399                           ;L210004 JCT.c: 719: else if(!zone0_en && zone1_en && !zone2_en && !zone3_en){
  4400  030D  08D3               	movf	_zone0_en,f
  4401  030E  1903               	btfsc	3,2
  4402  030F  28F4               	goto	i1l7191
  4403  0310                     i1l7211:	
  4404                           
  4405                           ;L210004 JCT.c: 740: else if(!zone0_en && !zone1_en && zone2_en && !zone3_en){
  4406  0310  08D3               	movf	_zone0_en,f
  4407  0311  1903               	btfsc	3,2
  4408  0312  290B               	goto	i1l7213
  4409  0313                     i1l7233:	
  4410                           
  4411                           ;L210004 JCT.c: 761: else if(!zone0_en && !zone1_en && !zone2_en && zone3_en){
  4412  0313  08D3               	movf	_zone0_en,f
  4413  0314  1903               	btfsc	3,2
  4414  0315  2922               	goto	i1l7235
  4415  0316                     i1l7255:	
  4416                           
  4417                           ;L210004 JCT.c: 782: else if(zone0_en && zone1_en && !zone2_en && !zone3_en){
  4418  0316  0853               	movf	_zone0_en,w	;volatile
  4419  0317  1903               	btfsc	3,2
  4420  0318  2B1F               	goto	i1l7289
  4421  0319  0854               	movf	_zone1_en,w	;volatile
  4422  031A  1903               	btfsc	3,2
  4423  031B  2B1F               	goto	i1l7289
  4424  031C  08D5               	movf	_zone2_en,f
  4425  031D  1903               	btfsc	3,2
  4426  031E  2941               	goto	i1l7261
  4427  031F                     i1l7289:	
  4428                           
  4429                           ;L210004 JCT.c: 819: else if(zone0_en && !zone1_en && zone2_en && !zone3_en){
  4430  031F  0853               	movf	_zone0_en,w	;volatile
  4431  0320  1903               	btfsc	3,2
  4432  0321  2B25               	goto	i1l7323
  4433  0322  08D4               	movf	_zone1_en,f
  4434  0323  1903               	btfsc	3,2
  4435  0324  2964               	goto	i1l7293
  4436  0325                     i1l7323:	
  4437                           
  4438                           ;L210004 JCT.c: 856: else if(zone0_en && !zone1_en && !zone2_en && zone3_en){
  4439  0325  0853               	movf	_zone0_en,w	;volatile
  4440  0326  1903               	btfsc	3,2
  4441  0327  2B2B               	goto	i1l7357
  4442  0328  08D4               	movf	_zone1_en,f
  4443  0329  1903               	btfsc	3,2
  4444  032A  2985               	goto	i1l7327
  4445  032B                     i1l7357:	
  4446                           
  4447                           ;L210004 JCT.c: 893: else if(!zone0_en && zone1_en && zone2_en && !zone3_en){
  4448  032B  08D3               	movf	_zone0_en,f
  4449  032C  1903               	btfsc	3,2
  4450  032D  29A6               	goto	i1l7359
  4451  032E                     i1l7391:	
  4452                           
  4453                           ;L210004 JCT.c: 930: else if(!zone0_en && zone1_en && !zone2_en && zone3_en){
  4454  032E  08D3               	movf	_zone0_en,f
  4455  032F  1903               	btfsc	3,2
  4456  0330  29CD               	goto	i1l7393
  4457  0331                     i1l7425:	
  4458                           
  4459                           ;L210004 JCT.c: 967: else if(!zone0_en && !zone1_en && zone2_en && zone3_en){
  4460  0331  08D3               	movf	_zone0_en,f
  4461  0332  1903               	btfsc	3,2
  4462  0333  29EF               	goto	i1l7427
  4463  0334                     i1l7459:	
  4464                           
  4465                           ;L210004 JCT.c: 1004: else if(zone0_en && zone1_en && zone2_en && !zone3_en){
  4466  0334  0853               	movf	_zone0_en,w	;volatile
  4467  0335  1903               	btfsc	3,2
  4468  0336  2B40               	goto	i1l7505
  4469  0337  0854               	movf	_zone1_en,w	;volatile
  4470  0338  1903               	btfsc	3,2
  4471  0339  2B40               	goto	i1l7505
  4472  033A  0855               	movf	_zone2_en,w	;volatile
  4473  033B  1903               	btfsc	3,2
  4474  033C  2B40               	goto	i1l7505
  4475  033D  08D6               	movf	_zone3_en,f
  4476  033E  1903               	btfsc	3,2
  4477  033F  2A1E               	goto	i1l7467
  4478  0340                     i1l7505:	
  4479                           
  4480                           ;L210004 JCT.c: 1057: else if(zone0_en && zone1_en && !zone2_en && zone3_en){
  4481  0340  0853               	movf	_zone0_en,w	;volatile
  4482  0341  1903               	btfsc	3,2
  4483  0342  2B49               	goto	i1l7551
  4484  0343  0854               	movf	_zone1_en,w	;volatile
  4485  0344  1903               	btfsc	3,2
  4486  0345  2B49               	goto	i1l7551
  4487  0346  08D5               	movf	_zone2_en,f
  4488  0347  1903               	btfsc	3,2
  4489  0348  2A5C               	goto	i1l7511
  4490  0349                     i1l7551:	
  4491                           
  4492                           ;L210004 JCT.c: 1110: else if(zone0_en && !zone1_en && zone2_en && zone3_en){
  4493  0349  0853               	movf	_zone0_en,w	;volatile
  4494  034A  1903               	btfsc	3,2
  4495  034B  2B4F               	goto	i1l7597
  4496  034C  08D4               	movf	_zone1_en,f
  4497  034D  1903               	btfsc	3,2
  4498  034E  2A92               	goto	i1l7555
  4499  034F                     i1l7597:	
  4500                           
  4501                           ;L210004 JCT.c: 1163: else if(!zone0_en && zone1_en && zone2_en && zone3_en){
  4502  034F  08D3               	movf	_zone0_en,f
  4503  0350  1903               	btfsc	3,2
  4504  0351  2ABE               	goto	i1l7599
  4505  0352                     i1l7643:	
  4506                           
  4507                           ;L210004 JCT.c: 1216: else if(zone0_en && zone1_en && zone2_en && zone3_en){
  4508  0352  0853               	movf	_zone0_en,w	;volatile
  4509  0353  1903               	btfsc	3,2
  4510  0354  2BB9               	goto	i1l2143
  4511  0355  0854               	movf	_zone1_en,w	;volatile
  4512  0356  1903               	btfsc	3,2
  4513  0357  2BB9               	goto	i1l2143
  4514  0358  0855               	movf	_zone2_en,w	;volatile
  4515  0359  1903               	btfsc	3,2
  4516  035A  2BB9               	goto	i1l2143
  4517  035B  0856               	movf	_zone3_en,w	;volatile
  4518  035C  1903               	btfsc	3,2
  4519  035D  2BB9               	goto	i1l2143
  4520                           
  4521                           ;L210004 JCT.c: 1217: if(w_count < 100){
  4522  035E  0871               	movf	_w_count+1,w	;volatile
  4523  035F  3A80               	xorlw	128
  4524  0360  00FF               	movwf	127
  4525  0361  3080               	movlw	128
  4526  0362  027F               	subwf	127,w
  4527  0363  1D03               	skipz
  4528  0364  2B67               	goto	u683_25
  4529  0365  3064               	movlw	100
  4530  0366  0270               	subwf	_w_count,w	;volatile
  4531  0367                     u683_25:	
  4532  0367  1C03               	btfss	3,0
  4533  0368  28E7               	goto	i1l7177
  4534                           
  4535                           ;L210004 JCT.c: 1225: else if(w_count < 200){
  4536  0369  0871               	movf	_w_count+1,w	;volatile
  4537  036A  3A80               	xorlw	128
  4538  036B  00FF               	movwf	127
  4539  036C  3080               	movlw	128
  4540  036D  027F               	subwf	127,w
  4541  036E  1D03               	skipz
  4542  036F  2B72               	goto	u684_25
  4543  0370  30C8               	movlw	200
  4544  0371  0270               	subwf	_w_count,w	;volatile
  4545  0372                     u684_25:	
  4546  0372  1C03               	btfss	3,0
  4547  0373  295A               	goto	i1l7271
  4548                           
  4549                           ;L210004 JCT.c: 1233: else if(w_count < 300){
  4550  0374  0871               	movf	_w_count+1,w	;volatile
  4551  0375  3A80               	xorlw	128
  4552  0376  00FF               	movwf	127
  4553  0377  3081               	movlw	129
  4554  0378  027F               	subwf	127,w
  4555  0379  1D03               	skipz
  4556  037A  2B7D               	goto	u685_25
  4557  037B  302C               	movlw	44
  4558  037C  0270               	subwf	_w_count,w	;volatile
  4559  037D                     u685_25:	
  4560  037D  1C03               	btfss	3,0
  4561  037E  2A3F               	goto	i1l7481
  4562                           
  4563                           ;L210004 JCT.c: 1241: else if(w_count < 400){
  4564  037F  0871               	movf	_w_count+1,w	;volatile
  4565  0380  3A80               	xorlw	128
  4566  0381  00FF               	movwf	127
  4567  0382  3081               	movlw	129
  4568  0383  027F               	subwf	127,w
  4569  0384  1D03               	skipz
  4570  0385  2B88               	goto	u686_25
  4571  0386  3090               	movlw	144
  4572  0387  0270               	subwf	_w_count,w	;volatile
  4573  0388                     u686_25:	
  4574  0388  1803               	skipnc
  4575  0389  2B91               	goto	i1l7675
  4576                           
  4577                           ;L210004 JCT.c: 1242: LATA7 = 1;
  4578  038A  0022               	movlb	2	; select bank2
  4579  038B  178C               	bsf	12,7
  4580  038C                     L38:	
  4581                           
  4582                           ;L210004 JCT.c: 1243: LATA0 = 1;
  4583  038C  140C               	bsf	12,0
  4584                           
  4585                           ;L210004 JCT.c: 1244: LATA5 = 1;
  4586  038D  168C               	bsf	12,5
  4587  038E                     L30:	
  4588                           
  4589                           ;L210004 JCT.c: 1245: LATA4 = 1;
  4590  038E  160C               	bsf	12,4
  4591  038F                     L27:	
  4592                           
  4593                           ;L210004 JCT.c: 1246: LATA3 = 1;
  4594  038F  158C               	bsf	12,3
  4595  0390  28F0               	goto	i1l7179
  4596  0391                     i1l7675:	
  4597                           
  4598                           ;L210004 JCT.c: 1249: else if(w_count < 500){
  4599  0391  0871               	movf	_w_count+1,w	;volatile
  4600  0392  3A80               	xorlw	128
  4601  0393  00FF               	movwf	127
  4602  0394  3081               	movlw	129
  4603  0395  027F               	subwf	127,w
  4604  0396  1D03               	skipz
  4605  0397  2B9A               	goto	u687_25
  4606  0398  30F4               	movlw	244
  4607  0399  0270               	subwf	_w_count,w	;volatile
  4608  039A                     u687_25:	
  4609  039A  1C03               	btfss	3,0
  4610  039B  2AE8               	goto	i1l7619
  4611                           
  4612                           ;L210004 JCT.c: 1257: else if(w_count < 600){
  4613  039C  0871               	movf	_w_count+1,w	;volatile
  4614  039D  3A80               	xorlw	128
  4615  039E  00FF               	movwf	127
  4616  039F  3082               	movlw	130
  4617  03A0  027F               	subwf	127,w
  4618  03A1  1D03               	skipz
  4619  03A2  2BA5               	goto	u688_25
  4620  03A3  3058               	movlw	88
  4621  03A4  0270               	subwf	_w_count,w	;volatile
  4622  03A5                     u688_25:	
  4623  03A5  1C03               	btfss	3,0
  4624  03A6  2A0E               	goto	i1l7441
  4625                           
  4626                           ;L210004 JCT.c: 1265: else if(w_count < 700){
  4627  03A7  0871               	movf	_w_count+1,w	;volatile
  4628  03A8  3A80               	xorlw	128
  4629  03A9  00FF               	movwf	127
  4630  03AA  3082               	movlw	130
  4631  03AB  027F               	subwf	127,w
  4632  03AC  1D03               	skipz
  4633  03AD  2BB0               	goto	u689_25
  4634  03AE  30BC               	movlw	188
  4635  03AF  0270               	subwf	_w_count,w	;volatile
  4636  03B0                     u689_25:	
  4637  03B0  1C03               	btfss	3,0
  4638  03B1  2936               	goto	i1l7243
  4639                           
  4640                           ;L210004 JCT.c: 1273: else if(w_count < 730){
  4641  03B2  0871               	movf	_w_count+1,w	;volatile
  4642  03B3  23CA  3180         	fcall	PL13	;call to abstracted procedure
  4643  03B5  1D03               	skipz
  4644  03B6  2B08               	goto	u678_25
  4645  03B7  30DA               	movlw	218
  4646  03B8  2B07               	goto	L31
  4647  03B9                     i1l2143:	
  4648                           
  4649                           ;L210004 JCT.c: 1285: else{
  4650                           ;L210004 JCT.c: 1286: LATA7 = 0;
  4651  03B9  0022               	movlb	2	; select bank2
  4652  03BA  138C               	bcf	12,7
  4653                           
  4654                           ;L210004 JCT.c: 1287: LATA0 = 0;
  4655  03BB  100C               	bcf	12,0
  4656                           
  4657                           ;L210004 JCT.c: 1288: LATA5 = 0;
  4658  03BC  128C               	bcf	12,5
  4659                           
  4660                           ;L210004 JCT.c: 1289: LATA4 = 0;
  4661  03BD  120C               	bcf	12,4
  4662                           
  4663                           ;L210004 JCT.c: 1290: LATA3 = 0;
  4664  03BE  118C               	bcf	12,3
  4665  03BF  0008               	return
  4666  03C0                     __end_of_wave:	
  4667  03C0                     PL5:	
  4668  03C0  0871               	movf	_w_count+1,w	;volatile
  4669  03C1  3A80               	xorlw	128
  4670  03C2  00FF               	movwf	127
  4671  03C3  3081               	movlw	129
  4672  03C4  027F               	subwf	127,w
  4673  03C5  1D03               	skipz
  4674  03C6  0008               	return
  4675  03C7  302C               	movlw	44
  4676  03C8  0270               	subwf	_w_count,w	;volatile
  4677  03C9  0008               	return
  4678  03CA                     PL13:	
  4679  03CA  3A80               	xorlw	128
  4680  03CB  00FF               	movwf	127
  4681  03CC  3082               	movlw	130
  4682  03CD  027F               	subwf	127,w
  4683  03CE  0008               	return
  4684                           
  4685                           	psect	text447
  4686  0BFB                     __ptext447:	
  4687 ;; =============== function _wave ends ============
  4688                           
  4689                           
  4690 ;; *************** function _alternate *****************
  4691 ;; Defined at:
  4692 ;;		line 2090 in file "L210004 JCT.c"
  4693 ;; Parameters:    Size  Location     Type
  4694 ;;		None
  4695 ;; Auto vars:     Size  Location     Type
  4696 ;;		None
  4697 ;; Return value:  Size  Location     Type
  4698 ;;		None               void
  4699 ;; Registers used:
  4700 ;;		wreg, status,2, status,0, btemp+1
  4701 ;; Tracked objects:
  4702 ;;		On entry : 1F/0
  4703 ;;		On exit  : 1D/0
  4704 ;;		Unchanged: FFE00/0
  4705 ;; Data sizes:     COMMON   BANK0   BANK1   BANK2
  4706 ;;      Params:         0       0       0       0
  4707 ;;      Locals:         0       0       0       0
  4708 ;;      Temps:          0       0       0       0
  4709 ;;      Totals:         0       0       0       0
  4710 ;;Total ram usage:        0 bytes
  4711 ;; Hardware stack levels used:    1
  4712 ;; This function calls:
  4713 ;;		Nothing
  4714 ;; This function is called by:
  4715 ;;		_isr
  4716 ;; This function uses a non-reentrant model
  4717 ;;
  4718  0BFB                     _alternate:	
  4719                           
  4720                           ;L210004 JCT.c: 2091: if(heat_en){
  4721                           
  4722                           ; Regs used in _alternate: [wreg+status,2+status,0+btemp+1]
  4723  0BFB  083A               	movf	_heat_en,w	;volatile
  4724  0BFC  1903               	btfsc	3,2
  4725  0BFD  2C01               	goto	i1l2391
  4726                           
  4727                           ;L210004 JCT.c: 2092: LATA2 = 1;
  4728  0BFE  0022               	movlb	2	; select bank2
  4729  0BFF  150C               	bsf	12,2
  4730                           
  4731                           ;L210004 JCT.c: 2093: }
  4732  0C00  2C03               	goto	i1l6833
  4733  0C01                     i1l2391:	
  4734                           
  4735                           ;L210004 JCT.c: 2094: else{
  4736                           ;L210004 JCT.c: 2095: LATA2 = 0;
  4737  0C01  0022               	movlb	2	; select bank2
  4738  0C02  110C               	bcf	12,2
  4739  0C03                     i1l6833:	
  4740                           
  4741                           ;L210004 JCT.c: 2096: }
  4742                           ;L210004 JCT.c: 2097: if(zone0_en && zone1_en && zone2_en && zone3_en){
  4743  0C03  0020               	movlb	0	; select bank0
  4744  0C04  0853               	movf	_zone0_en,w	;volatile
  4745  0C05  1903               	btfsc	3,2
  4746  0C06  2CD8               	goto	i1l6855
  4747  0C07  0854               	movf	_zone1_en,w	;volatile
  4748  0C08  1903               	btfsc	3,2
  4749  0C09  2CD8               	goto	i1l6855
  4750  0C0A  0855               	movf	_zone2_en,w	;volatile
  4751  0C0B  1903               	btfsc	3,2
  4752  0C0C  2CD8               	goto	i1l6855
  4753  0C0D  0856               	movf	_zone3_en,w	;volatile
  4754  0C0E  1903               	btfsc	3,2
  4755  0C0F  2CD8               	goto	i1l6855
  4756                           
  4757                           ;L210004 JCT.c: 2098: if(a_count < 100){
  4758  0C10  082D               	movf	_a_count+1,w	;volatile
  4759  0C11  3A80               	xorlw	128
  4760  0C12  00FF               	movwf	127
  4761  0C13  3080               	movlw	128
  4762  0C14  027F               	subwf	127,w
  4763  0C15  1D03               	skipz
  4764  0C16  2C19               	goto	u480_25
  4765  0C17  3064               	movlw	100
  4766  0C18  022C               	subwf	_a_count,w	;volatile
  4767  0C19                     u480_25:	
  4768  0C19  1803               	skipnc
  4769  0C1A  2C61               	goto	i1l6935
  4770  0C1B                     i1l6843:	
  4771                           
  4772                           ;L210004 JCT.c: 2099: LATA7 = 1;
  4773  0C1B  0022               	movlb	2	; select bank2
  4774  0C1C  178C               	bsf	12,7
  4775  0C1D  2C57               	goto	L57
  4776  0C1E                     i1l6849:	
  4777                           ;L210004 JCT.c: 2103: LATA3 = 0;
  4778                           
  4779                           ;L210004 JCT.c: 2102: LATA4 = 0;
  4780                           
  4781                           ;L210004 JCT.c: 2101: LATA5 = 1;
  4782                           
  4783                           ;L210004 JCT.c: 2100: LATA0 = 1;
  4784                           
  4785                           
  4786                           ;L210004 JCT.c: 2107: LATA7 = 0;
  4787  0C1E  0022               	movlb	2	; select bank2
  4788                           
  4789                           ;L210004 JCT.c: 2108: LATA0 = 1;
  4790                           
  4791                           ;L210004 JCT.c: 2109: LATA5 = 0;
  4792                           
  4793                           ;L210004 JCT.c: 2110: LATA4 = 1;
  4794  0C1F  25C1  318B         	fcall	PL12	;call to abstracted procedure
  4795  0C21  2C4B               	goto	L51
  4796  0C22                     i1l6863:	
  4797                           ;L210004 JCT.c: 2111: LATA3 = 1;
  4798                           
  4799                           
  4800                           ;L210004 JCT.c: 2119: if(a_count < 100){
  4801  0C22  25B7  318B         	fcall	PL4	;call to abstracted procedure
  4802  0C24  1C03               	btfss	3,0
  4803  0C25  2C1B               	goto	i1l6843
  4804  0C26                     L54:	
  4805                           
  4806                           ;L210004 JCT.c: 2127: else if(a_count < 200){
  4807  0C26  0020               	movlb	0	; select bank0
  4808  0C27  082D               	movf	_a_count+1,w	;volatile
  4809  0C28  3A80               	xorlw	128
  4810  0C29  00FF               	movwf	127
  4811  0C2A  3080               	movlw	128
  4812  0C2B  027F               	subwf	127,w
  4813  0C2C  1D03               	skipz
  4814  0C2D  2C30               	goto	u487_25
  4815  0C2E  30C8               	movlw	200
  4816  0C2F  022C               	subwf	_a_count,w	;volatile
  4817  0C30                     u487_25:	
  4818  0C30  1803               	skipnc
  4819  0C31  2CD4               	goto	i1l6853
  4820  0C32                     i1l6871:	
  4821                           
  4822                           ;L210004 JCT.c: 2128: LATA7 = 0;
  4823  0C32  0022               	movlb	2	; select bank2
  4824                           
  4825                           ;L210004 JCT.c: 2129: LATA0 = 1;
  4826                           
  4827                           ;L210004 JCT.c: 2130: LATA5 = 0;
  4828                           
  4829                           ;L210004 JCT.c: 2131: LATA4 = 1;
  4830  0C33  25C1  318B         	fcall	PL12	;call to abstracted procedure
  4831  0C35  2D66               	goto	L52
  4832  0C36                     i1l6885:	
  4833                           ;L210004 JCT.c: 2132: LATA3 = 0;
  4834                           
  4835                           
  4836                           ;L210004 JCT.c: 2140: if(a_count < 100){
  4837  0C36  25B7  318B         	fcall	PL4	;call to abstracted procedure
  4838  0C38  1C03               	btfss	3,0
  4839  0C39  2C1B               	goto	i1l6843
  4840  0C3A                     L55:	
  4841                           
  4842                           ;L210004 JCT.c: 2148: else if(a_count < 200){
  4843  0C3A  0020               	movlb	0	; select bank0
  4844  0C3B  082D               	movf	_a_count+1,w	;volatile
  4845  0C3C  3A80               	xorlw	128
  4846  0C3D  00FF               	movwf	127
  4847  0C3E  3080               	movlw	128
  4848  0C3F  027F               	subwf	127,w
  4849  0C40  1D03               	skipz
  4850  0C41  2C44               	goto	u493_25
  4851  0C42  30C8               	movlw	200
  4852  0C43  022C               	subwf	_a_count,w	;volatile
  4853  0C44                     u493_25:	
  4854  0C44  1803               	skipnc
  4855  0C45  2CD4               	goto	i1l6853
  4856  0C46                     i1l6893:	
  4857                           
  4858                           ;L210004 JCT.c: 2149: LATA7 = 0;
  4859  0C46  0022               	movlb	2	; select bank2
  4860  0C47  138C               	bcf	12,7
  4861                           
  4862                           ;L210004 JCT.c: 2150: LATA0 = 1;
  4863  0C48  140C               	bsf	12,0
  4864                           
  4865                           ;L210004 JCT.c: 2151: LATA5 = 0;
  4866  0C49  128C               	bcf	12,5
  4867                           
  4868                           ;L210004 JCT.c: 2152: LATA4 = 0;
  4869  0C4A  120C               	bcf	12,4
  4870  0C4B                     L51:	
  4871                           
  4872                           ;L210004 JCT.c: 2153: LATA3 = 1;
  4873  0C4B  158C               	bsf	12,3
  4874  0C4C                     i1l6845:	
  4875                           
  4876                           ;L210004 JCT.c: 2104: a_count++;
  4877  0C4C  0020               	movlb	0	; select bank0
  4878  0C4D  0AAC               	incf	_a_count,f	;volatile
  4879  0C4E  1903               	skipnz
  4880  0C4F  0AAD               	incf	_a_count+1,f	;volatile
  4881                           
  4882                           ;L210004 JCT.c: 2105: }
  4883  0C50  0008               	return
  4884  0C51                     i1l6907:	
  4885                           ;L210004 JCT.c: 2106: else if(a_count < 200){
  4886                           
  4887                           
  4888                           ;L210004 JCT.c: 2161: if(a_count < 100){
  4889  0C51  25B7  318B         	fcall	PL4	;call to abstracted procedure
  4890  0C53  1803               	skipnc
  4891  0C54  2C61               	goto	i1l6935
  4892  0C55                     i1l6909:	
  4893                           
  4894                           ;L210004 JCT.c: 2162: LATA7 = 0;
  4895  0C55  0022               	movlb	2	; select bank2
  4896  0C56  138C               	bcf	12,7
  4897  0C57                     L57:	
  4898                           
  4899                           ;L210004 JCT.c: 2163: LATA0 = 1;
  4900  0C57  140C               	bsf	12,0
  4901                           
  4902                           ;L210004 JCT.c: 2164: LATA5 = 1;
  4903  0C58  168C               	bsf	12,5
  4904  0C59  2D65               	goto	L49
  4905  0C5A                     i1l6929:	
  4906                           ;L210004 JCT.c: 2169: else if(a_count < 200){
  4907                           
  4908                           ;L210004 JCT.c: 2166: LATA3 = 0;
  4909                           
  4910                           ;L210004 JCT.c: 2165: LATA4 = 0;
  4911                           
  4912                           
  4913                           ;L210004 JCT.c: 2182: if(a_count < 100){
  4914  0C5A  25B7  318B         	fcall	PL4	;call to abstracted procedure
  4915  0C5C  1803               	skipnc
  4916  0C5D  2C61               	goto	i1l6935
  4917  0C5E                     i1l6931:	
  4918                           
  4919                           ;L210004 JCT.c: 2183: LATA7 = 1;
  4920  0C5E  0022               	movlb	2	; select bank2
  4921  0C5F  178C               	bsf	12,7
  4922  0C60  2D63               	goto	L53
  4923  0C61                     i1l6935:	
  4924                           ;L210004 JCT.c: 2187: LATA3 = 0;
  4925                           
  4926                           ;L210004 JCT.c: 2186: LATA4 = 0;
  4927                           
  4928                           ;L210004 JCT.c: 2185: LATA5 = 0;
  4929                           
  4930                           ;L210004 JCT.c: 2184: LATA0 = 1;
  4931                           
  4932                           
  4933                           ;L210004 JCT.c: 2190: else if(a_count < 200){
  4934  0C61  0020               	movlb	0	; select bank0
  4935  0C62  082D               	movf	_a_count+1,w	;volatile
  4936  0C63  3A80               	xorlw	128
  4937  0C64  00FF               	movwf	127
  4938  0C65  3080               	movlw	128
  4939  0C66  027F               	subwf	127,w
  4940  0C67  1D03               	skipz
  4941  0C68  2C6B               	goto	u505_25
  4942  0C69  30C8               	movlw	200
  4943  0C6A  022C               	subwf	_a_count,w	;volatile
  4944  0C6B                     u505_25:	
  4945  0C6B  1C03               	btfss	3,0
  4946  0C6C  2C1E               	goto	i1l6849
  4947  0C6D  2CD4               	goto	i1l6853
  4948  0C6E                     i1l6949:	
  4949  0C6E  08D6               	movf	_zone3_en,f
  4950  0C6F  1D03               	skipz
  4951  0C70  2D11               	goto	i1l6965
  4952                           
  4953                           ;L210004 JCT.c: 2203: if(a_count < 100){
  4954  0C71  082D               	movf	_a_count+1,w	;volatile
  4955  0C72  3A80               	xorlw	128
  4956  0C73  00FF               	movwf	127
  4957  0C74  3080               	movlw	128
  4958  0C75  027F               	subwf	127,w
  4959  0C76  1D03               	skipz
  4960  0C77  2C7A               	goto	u510_25
  4961  0C78  3064               	movlw	100
  4962  0C79  022C               	subwf	_a_count,w	;volatile
  4963  0C7A                     u510_25:	
  4964  0C7A  1C03               	btfss	3,0
  4965  0C7B  2C5E               	goto	i1l6931
  4966                           
  4967                           ;L210004 JCT.c: 2211: else if(a_count < 200){
  4968  0C7C  0020               	movlb	0	; select bank0
  4969  0C7D  082D               	movf	_a_count+1,w	;volatile
  4970  0C7E  3A80               	xorlw	128
  4971  0C7F  00FF               	movwf	127
  4972  0C80  3080               	movlw	128
  4973  0C81  027F               	subwf	127,w
  4974  0C82  1D03               	skipz
  4975  0C83  2C86               	goto	u511_25
  4976  0C84  30C8               	movlw	200
  4977  0C85  022C               	subwf	_a_count,w	;volatile
  4978  0C86                     u511_25:	
  4979  0C86  1C03               	btfss	3,0
  4980  0C87  2C55               	goto	i1l6909
  4981  0C88  2CD4               	goto	i1l6853
  4982  0C89                     i1l6971:	
  4983  0C89  08D6               	movf	_zone3_en,f
  4984  0C8A  1D03               	skipz
  4985  0C8B  2D1A               	goto	i1l6987
  4986                           
  4987                           ;L210004 JCT.c: 2224: if(a_count < 100){
  4988  0C8C  082D               	movf	_a_count+1,w	;volatile
  4989  0C8D  3A80               	xorlw	128
  4990  0C8E  00FF               	movwf	127
  4991  0C8F  3080               	movlw	128
  4992  0C90  027F               	subwf	127,w
  4993  0C91  1D03               	skipz
  4994  0C92  2C95               	goto	u516_25
  4995  0C93  3064               	movlw	100
  4996  0C94  022C               	subwf	_a_count,w	;volatile
  4997  0C95                     u516_25:	
  4998  0C95  1C03               	btfss	3,0
  4999  0C96  2C5E               	goto	i1l6931
  5000  0C97  2C26               	goto	L54
  5001  0C98                     i1l6993:	
  5002                           ;L210004 JCT.c: 2232: else if(a_count < 200){
  5003                           
  5004  0C98  08D5               	movf	_zone2_en,f
  5005  0C99  1D03               	skipz
  5006  0C9A  2D23               	goto	i1l7009
  5007                           
  5008                           ;L210004 JCT.c: 2245: if(a_count < 100){
  5009  0C9B  082D               	movf	_a_count+1,w	;volatile
  5010  0C9C  3A80               	xorlw	128
  5011  0C9D  00FF               	movwf	127
  5012  0C9E  3080               	movlw	128
  5013  0C9F  027F               	subwf	127,w
  5014  0CA0  1D03               	skipz
  5015  0CA1  2CA4               	goto	u522_25
  5016  0CA2  3064               	movlw	100
  5017  0CA3  022C               	subwf	_a_count,w	;volatile
  5018  0CA4                     u522_25:	
  5019  0CA4  1C03               	btfss	3,0
  5020  0CA5  2C5E               	goto	i1l6931
  5021  0CA6  2C3A               	goto	L55
  5022  0CA7                     i1l7015:	
  5023                           ;L210004 JCT.c: 2253: else if(a_count < 200){
  5024                           
  5025  0CA7  08D6               	movf	_zone3_en,f
  5026  0CA8  1D03               	skipz
  5027  0CA9  2D2C               	goto	i1l7031
  5028                           
  5029                           ;L210004 JCT.c: 2266: if(a_count < 100){
  5030  0CAA  082D               	movf	_a_count+1,w	;volatile
  5031  0CAB  3A80               	xorlw	128
  5032  0CAC  00FF               	movwf	127
  5033  0CAD  3080               	movlw	128
  5034  0CAE  027F               	subwf	127,w
  5035  0CAF  1D03               	skipz
  5036  0CB0  2CB3               	goto	u528_25
  5037  0CB1  3064               	movlw	100
  5038  0CB2  022C               	subwf	_a_count,w	;volatile
  5039  0CB3                     u528_25:	
  5040  0CB3  1C03               	btfss	3,0
  5041  0CB4  2C55               	goto	i1l6909
  5042  0CB5  2C26               	goto	L54
  5043  0CB6                     i1l7037:	
  5044                           ;L210004 JCT.c: 2274: else if(a_count < 200){
  5045                           
  5046  0CB6  08D5               	movf	_zone2_en,f
  5047  0CB7  1D03               	skipz
  5048  0CB8  2D35               	goto	i1l7053
  5049                           
  5050                           ;L210004 JCT.c: 2287: if(a_count < 100){
  5051  0CB9  082D               	movf	_a_count+1,w	;volatile
  5052  0CBA  3A80               	xorlw	128
  5053  0CBB  00FF               	movwf	127
  5054  0CBC  3080               	movlw	128
  5055  0CBD  027F               	subwf	127,w
  5056  0CBE  1D03               	skipz
  5057  0CBF  2CC2               	goto	u534_25
  5058  0CC0  3064               	movlw	100
  5059  0CC1  022C               	subwf	_a_count,w	;volatile
  5060  0CC2                     u534_25:	
  5061  0CC2  1C03               	btfss	3,0
  5062  0CC3  2C55               	goto	i1l6909
  5063  0CC4  2C3A               	goto	L55
  5064  0CC5                     i1l7059:	
  5065                           ;L210004 JCT.c: 2295: else if(a_count < 200){
  5066                           
  5067  0CC5  08D4               	movf	_zone1_en,f
  5068  0CC6  1D03               	skipz
  5069  0CC7  2D3E               	goto	i1l7075
  5070                           
  5071                           ;L210004 JCT.c: 2308: if(a_count < 100){
  5072  0CC8  082D               	movf	_a_count+1,w	;volatile
  5073  0CC9  3A80               	xorlw	128
  5074  0CCA  00FF               	movwf	127
  5075  0CCB  3080               	movlw	128
  5076  0CCC  027F               	subwf	127,w
  5077  0CCD  1D03               	skipz
  5078  0CCE  2CD1               	goto	u540_25
  5079  0CCF  3064               	movlw	100
  5080  0CD0  022C               	subwf	_a_count,w	;volatile
  5081  0CD1                     u540_25:	
  5082  0CD1  1C03               	btfss	3,0
  5083  0CD2  2C32               	goto	i1l6871
  5084  0CD3  2C3A               	goto	L55
  5085  0CD4                     i1l6853:	
  5086                           ;L210004 JCT.c: 2316: else if(a_count < 200){
  5087                           
  5088                           
  5089                           ;L210004 JCT.c: 2114: else{
  5090                           ;L210004 JCT.c: 2115: a_count = 0;
  5091  0CD4  0020               	movlb	0	; select bank0
  5092  0CD5  01AC               	clrf	_a_count	;volatile
  5093  0CD6  01AD               	clrf	_a_count+1	;volatile
  5094  0CD7  0008               	return
  5095  0CD8                     i1l6855:	
  5096                           
  5097                           ;L210004 JCT.c: 2118: else if(zone0_en && zone1_en && zone2_en && !zone3_en){
  5098  0CD8  0853               	movf	_zone0_en,w	;volatile
  5099  0CD9  1903               	btfsc	3,2
  5100  0CDA  2CE4               	goto	i1l6877
  5101  0CDB  0854               	movf	_zone1_en,w	;volatile
  5102  0CDC  1903               	btfsc	3,2
  5103  0CDD  2CE4               	goto	i1l6877
  5104  0CDE  0855               	movf	_zone2_en,w	;volatile
  5105  0CDF  1903               	btfsc	3,2
  5106  0CE0  2CE4               	goto	i1l6877
  5107  0CE1  08D6               	movf	_zone3_en,f
  5108  0CE2  1903               	btfsc	3,2
  5109  0CE3  2C22               	goto	i1l6863
  5110  0CE4                     i1l6877:	
  5111                           
  5112                           ;L210004 JCT.c: 2139: else if(zone0_en && zone1_en && zone3_en && !zone2_en){
  5113  0CE4  0853               	movf	_zone0_en,w	;volatile
  5114  0CE5  1903               	btfsc	3,2
  5115  0CE6  2CF0               	goto	i1l6899
  5116  0CE7  0854               	movf	_zone1_en,w	;volatile
  5117  0CE8  1903               	btfsc	3,2
  5118  0CE9  2CF0               	goto	i1l6899
  5119  0CEA  0856               	movf	_zone3_en,w	;volatile
  5120  0CEB  1903               	btfsc	3,2
  5121  0CEC  2CF0               	goto	i1l6899
  5122  0CED  08D5               	movf	_zone2_en,f
  5123  0CEE  1903               	btfsc	3,2
  5124  0CEF  2C36               	goto	i1l6885
  5125  0CF0                     i1l6899:	
  5126                           
  5127                           ;L210004 JCT.c: 2160: else if(zone1_en && zone2_en && zone3_en && !zone0_en){
  5128  0CF0  0854               	movf	_zone1_en,w	;volatile
  5129  0CF1  1903               	btfsc	3,2
  5130  0CF2  2CFC               	goto	i1l6921
  5131  0CF3  0855               	movf	_zone2_en,w	;volatile
  5132  0CF4  1903               	btfsc	3,2
  5133  0CF5  2CFC               	goto	i1l6921
  5134  0CF6  0856               	movf	_zone3_en,w	;volatile
  5135  0CF7  1903               	btfsc	3,2
  5136  0CF8  2CFC               	goto	i1l6921
  5137  0CF9  08D3               	movf	_zone0_en,f
  5138  0CFA  1903               	btfsc	3,2
  5139  0CFB  2C51               	goto	i1l6907
  5140  0CFC                     i1l6921:	
  5141                           
  5142                           ;L210004 JCT.c: 2181: else if(zone0_en && zone2_en && zone3_en && !zone1_en){
  5143  0CFC  0853               	movf	_zone0_en,w	;volatile
  5144  0CFD  1903               	btfsc	3,2
  5145  0CFE  2D08               	goto	i1l6943
  5146  0CFF  0855               	movf	_zone2_en,w	;volatile
  5147  0D00  1903               	btfsc	3,2
  5148  0D01  2D08               	goto	i1l6943
  5149  0D02  0856               	movf	_zone3_en,w	;volatile
  5150  0D03  1903               	btfsc	3,2
  5151  0D04  2D08               	goto	i1l6943
  5152  0D05  08D4               	movf	_zone1_en,f
  5153  0D06  1903               	btfsc	3,2
  5154  0D07  2C5A               	goto	i1l6929
  5155  0D08                     i1l6943:	
  5156                           
  5157                           ;L210004 JCT.c: 2202: else if(zone0_en && zone1_en && !zone2_en && !zone3_en){
  5158  0D08  0853               	movf	_zone0_en,w	;volatile
  5159  0D09  1903               	btfsc	3,2
  5160  0D0A  2D11               	goto	i1l6965
  5161  0D0B  0854               	movf	_zone1_en,w	;volatile
  5162  0D0C  1903               	btfsc	3,2
  5163  0D0D  2D11               	goto	i1l6965
  5164  0D0E  08D5               	movf	_zone2_en,f
  5165  0D0F  1903               	btfsc	3,2
  5166  0D10  2C6E               	goto	i1l6949
  5167  0D11                     i1l6965:	
  5168                           
  5169                           ;L210004 JCT.c: 2223: else if(zone0_en && zone2_en && !zone1_en && !zone3_en){
  5170  0D11  0853               	movf	_zone0_en,w	;volatile
  5171  0D12  1903               	btfsc	3,2
  5172  0D13  2D1A               	goto	i1l6987
  5173  0D14  0855               	movf	_zone2_en,w	;volatile
  5174  0D15  1903               	btfsc	3,2
  5175  0D16  2D1A               	goto	i1l6987
  5176  0D17  08D4               	movf	_zone1_en,f
  5177  0D18  1903               	btfsc	3,2
  5178  0D19  2C89               	goto	i1l6971
  5179  0D1A                     i1l6987:	
  5180                           
  5181                           ;L210004 JCT.c: 2244: else if(zone0_en && zone3_en && !zone1_en && !zone2_en){
  5182  0D1A  0853               	movf	_zone0_en,w	;volatile
  5183  0D1B  1903               	btfsc	3,2
  5184  0D1C  2D23               	goto	i1l7009
  5185  0D1D  0856               	movf	_zone3_en,w	;volatile
  5186  0D1E  1903               	btfsc	3,2
  5187  0D1F  2D23               	goto	i1l7009
  5188  0D20  08D4               	movf	_zone1_en,f
  5189  0D21  1903               	btfsc	3,2
  5190  0D22  2C98               	goto	i1l6993
  5191  0D23                     i1l7009:	
  5192                           
  5193                           ;L210004 JCT.c: 2265: else if(zone1_en && zone2_en && !zone0_en && !zone3_en){
  5194  0D23  0854               	movf	_zone1_en,w	;volatile
  5195  0D24  1903               	btfsc	3,2
  5196  0D25  2D2C               	goto	i1l7031
  5197  0D26  0855               	movf	_zone2_en,w	;volatile
  5198  0D27  1903               	btfsc	3,2
  5199  0D28  2D2C               	goto	i1l7031
  5200  0D29  08D3               	movf	_zone0_en,f
  5201  0D2A  1903               	btfsc	3,2
  5202  0D2B  2CA7               	goto	i1l7015
  5203  0D2C                     i1l7031:	
  5204                           
  5205                           ;L210004 JCT.c: 2286: else if(zone1_en && zone3_en && !zone0_en && !zone2_en){
  5206  0D2C  0854               	movf	_zone1_en,w	;volatile
  5207  0D2D  1903               	btfsc	3,2
  5208  0D2E  2D35               	goto	i1l7053
  5209  0D2F  0856               	movf	_zone3_en,w	;volatile
  5210  0D30  1903               	btfsc	3,2
  5211  0D31  2D35               	goto	i1l7053
  5212  0D32  08D3               	movf	_zone0_en,f
  5213  0D33  1903               	btfsc	3,2
  5214  0D34  2CB6               	goto	i1l7037
  5215  0D35                     i1l7053:	
  5216                           
  5217                           ;L210004 JCT.c: 2307: else if(zone2_en && zone3_en && !zone0_en && !zone1_en){
  5218  0D35  0855               	movf	_zone2_en,w	;volatile
  5219  0D36  1903               	btfsc	3,2
  5220  0D37  2D3E               	goto	i1l7075
  5221  0D38  0856               	movf	_zone3_en,w	;volatile
  5222  0D39  1903               	btfsc	3,2
  5223  0D3A  2D3E               	goto	i1l7075
  5224  0D3B  08D3               	movf	_zone0_en,f
  5225  0D3C  1903               	btfsc	3,2
  5226  0D3D  2CC5               	goto	i1l7059
  5227  0D3E                     i1l7075:	
  5228                           
  5229                           ;L210004 JCT.c: 2328: else if(zone0_en && !zone1_en && !zone2_en && !zone3_en){
  5230  0D3E  0853               	movf	_zone0_en,w	;volatile
  5231  0D3F  1903               	btfsc	3,2
  5232  0D40  2D68               	goto	i1l7097
  5233  0D41  08D4               	movf	_zone1_en,f
  5234  0D42  1D03               	skipz
  5235  0D43  2D68               	goto	i1l7097
  5236  0D44  08D5               	movf	_zone2_en,f
  5237  0D45  1D03               	skipz
  5238  0D46  2D68               	goto	i1l7097
  5239  0D47  08D6               	movf	_zone3_en,f
  5240  0D48  1D03               	skipz
  5241  0D49  2D68               	goto	i1l7097
  5242                           
  5243                           ;L210004 JCT.c: 2329: if(a_count < 100){
  5244  0D4A  082D               	movf	_a_count+1,w	;volatile
  5245  0D4B  3A80               	xorlw	128
  5246  0D4C  00FF               	movwf	127
  5247  0D4D  3080               	movlw	128
  5248  0D4E  027F               	subwf	127,w
  5249  0D4F  1D03               	skipz
  5250  0D50  2D53               	goto	u546_25
  5251  0D51  3064               	movlw	100
  5252  0D52  022C               	subwf	_a_count,w	;volatile
  5253  0D53                     u546_25:	
  5254  0D53  1C03               	btfss	3,0
  5255  0D54  2C5E               	goto	i1l6931
  5256  0D55                     L56:	
  5257                           
  5258                           ;L210004 JCT.c: 2337: else if(a_count < 130){
  5259  0D55  0020               	movlb	0	; select bank0
  5260  0D56  082D               	movf	_a_count+1,w	;volatile
  5261  0D57  3A80               	xorlw	128
  5262  0D58  00FF               	movwf	127
  5263  0D59  3080               	movlw	128
  5264  0D5A  027F               	subwf	127,w
  5265  0D5B  1D03               	skipz
  5266  0D5C  2D5F               	goto	u547_25
  5267  0D5D  3082               	movlw	130
  5268  0D5E  022C               	subwf	_a_count,w	;volatile
  5269  0D5F                     u547_25:	
  5270  0D5F  1803               	skipnc
  5271  0D60  2CD4               	goto	i1l6853
  5272                           
  5273                           ;L210004 JCT.c: 2338: LATA7 = 0;
  5274  0D61  0022               	movlb	2	; select bank2
  5275  0D62  138C               	bcf	12,7
  5276  0D63                     L53:	
  5277                           
  5278                           ;L210004 JCT.c: 2339: LATA0 = 1;
  5279  0D63  140C               	bsf	12,0
  5280                           
  5281                           ;L210004 JCT.c: 2340: LATA5 = 0;
  5282  0D64  128C               	bcf	12,5
  5283  0D65                     L49:	
  5284                           
  5285                           ;L210004 JCT.c: 2341: LATA4 = 0;
  5286  0D65  120C               	bcf	12,4
  5287  0D66                     L52:	
  5288                           
  5289                           ;L210004 JCT.c: 2342: LATA3 = 0;
  5290  0D66  118C               	bcf	12,3
  5291  0D67  2C4C               	goto	i1l6845
  5292  0D68                     i1l7097:	
  5293                           
  5294                           ;L210004 JCT.c: 2349: else if(zone1_en && !zone0_en && !zone2_en && !zone3_en){
  5295  0D68  0854               	movf	_zone1_en,w	;volatile
  5296  0D69  1903               	btfsc	3,2
  5297  0D6A  2D80               	goto	i1l7119
  5298  0D6B  08D3               	movf	_zone0_en,f
  5299  0D6C  1D03               	skipz
  5300  0D6D  2D80               	goto	i1l7119
  5301  0D6E  08D5               	movf	_zone2_en,f
  5302  0D6F  1D03               	skipz
  5303  0D70  2D80               	goto	i1l7119
  5304  0D71  08D6               	movf	_zone3_en,f
  5305  0D72  1D03               	skipz
  5306  0D73  2D80               	goto	i1l7119
  5307                           
  5308                           ;L210004 JCT.c: 2350: if(a_count < 100){
  5309  0D74  082D               	movf	_a_count+1,w	;volatile
  5310  0D75  3A80               	xorlw	128
  5311  0D76  00FF               	movwf	127
  5312  0D77  3080               	movlw	128
  5313  0D78  027F               	subwf	127,w
  5314  0D79  1D03               	skipz
  5315  0D7A  2D7D               	goto	u552_25
  5316  0D7B  3064               	movlw	100
  5317  0D7C  022C               	subwf	_a_count,w	;volatile
  5318  0D7D                     u552_25:	
  5319  0D7D  1C03               	btfss	3,0
  5320  0D7E  2C55               	goto	i1l6909
  5321  0D7F  2D55               	goto	L56
  5322  0D80                     i1l7119:	
  5323                           ;L210004 JCT.c: 2358: else if(a_count < 130){
  5324                           
  5325                           
  5326                           ;L210004 JCT.c: 2370: else if(zone2_en && !zone0_en && !zone1_en && !zone3_en){
  5327  0D80  0855               	movf	_zone2_en,w	;volatile
  5328  0D81  1903               	btfsc	3,2
  5329  0D82  2D98               	goto	i1l7141
  5330  0D83  08D3               	movf	_zone0_en,f
  5331  0D84  1D03               	skipz
  5332  0D85  2D98               	goto	i1l7141
  5333  0D86  08D4               	movf	_zone1_en,f
  5334  0D87  1D03               	skipz
  5335  0D88  2D98               	goto	i1l7141
  5336  0D89  08D6               	movf	_zone3_en,f
  5337  0D8A  1D03               	skipz
  5338  0D8B  2D98               	goto	i1l7141
  5339                           
  5340                           ;L210004 JCT.c: 2371: if(a_count < 100){
  5341  0D8C  082D               	movf	_a_count+1,w	;volatile
  5342  0D8D  3A80               	xorlw	128
  5343  0D8E  00FF               	movwf	127
  5344  0D8F  3080               	movlw	128
  5345  0D90  027F               	subwf	127,w
  5346  0D91  1D03               	skipz
  5347  0D92  2D95               	goto	u558_25
  5348  0D93  3064               	movlw	100
  5349  0D94  022C               	subwf	_a_count,w	;volatile
  5350  0D95                     u558_25:	
  5351  0D95  1C03               	btfss	3,0
  5352  0D96  2C32               	goto	i1l6871
  5353  0D97  2D55               	goto	L56
  5354  0D98                     i1l7141:	
  5355                           ;L210004 JCT.c: 2379: else if(a_count < 130){
  5356                           
  5357                           
  5358                           ;L210004 JCT.c: 2391: else if(zone3_en && !zone0_en && !zone1_en && !zone2_en){
  5359  0D98  0856               	movf	_zone3_en,w	;volatile
  5360  0D99  1903               	btfsc	3,2
  5361  0D9A  2DB0               	goto	i1l2477
  5362  0D9B  08D3               	movf	_zone0_en,f
  5363  0D9C  1D03               	skipz
  5364  0D9D  2DB0               	goto	i1l2477
  5365  0D9E  08D4               	movf	_zone1_en,f
  5366  0D9F  1D03               	skipz
  5367  0DA0  2DB0               	goto	i1l2477
  5368  0DA1  08D5               	movf	_zone2_en,f
  5369  0DA2  1D03               	skipz
  5370  0DA3  2DB0               	goto	i1l2477
  5371                           
  5372                           ;L210004 JCT.c: 2392: if(a_count < 100){
  5373  0DA4  082D               	movf	_a_count+1,w	;volatile
  5374  0DA5  3A80               	xorlw	128
  5375  0DA6  00FF               	movwf	127
  5376  0DA7  3080               	movlw	128
  5377  0DA8  027F               	subwf	127,w
  5378  0DA9  1D03               	skipz
  5379  0DAA  2DAD               	goto	u564_25
  5380  0DAB  3064               	movlw	100
  5381  0DAC  022C               	subwf	_a_count,w	;volatile
  5382  0DAD                     u564_25:	
  5383  0DAD  1C03               	btfss	3,0
  5384  0DAE  2C46               	goto	i1l6893
  5385  0DAF  2D55               	goto	L56
  5386  0DB0                     i1l2477:	
  5387                           ;L210004 JCT.c: 2400: else if(a_count < 130){
  5388                           
  5389                           
  5390                           ;L210004 JCT.c: 2413: else{
  5391                           ;L210004 JCT.c: 2414: LATA7 = 0;
  5392  0DB0  0022               	movlb	2	; select bank2
  5393  0DB1  138C               	bcf	12,7
  5394                           
  5395                           ;L210004 JCT.c: 2415: LATA0 = 0;
  5396  0DB2  100C               	bcf	12,0
  5397                           
  5398                           ;L210004 JCT.c: 2416: LATA5 = 0;
  5399  0DB3  128C               	bcf	12,5
  5400                           
  5401                           ;L210004 JCT.c: 2417: LATA4 = 0;
  5402  0DB4  120C               	bcf	12,4
  5403                           
  5404                           ;L210004 JCT.c: 2418: LATA3 = 0;
  5405  0DB5  118C               	bcf	12,3
  5406  0DB6  0008               	return
  5407  0DB7                     __end_of_alternate:	
  5408  0DB7                     PL4:	
  5409  0DB7  082D               	movf	_a_count+1,w	;volatile
  5410  0DB8  3A80               	xorlw	128
  5411  0DB9  00FF               	movwf	127
  5412  0DBA  3080               	movlw	128
  5413  0DBB  027F               	subwf	127,w
  5414  0DBC  1D03               	skipz
  5415  0DBD  0008               	return
  5416  0DBE  3064               	movlw	100
  5417  0DBF  022C               	subwf	_a_count,w	;volatile
  5418  0DC0  0008               	return
  5419  0DC1                     PL12:	
  5420  0DC1  138C               	bcf	12,7
  5421  0DC2  140C               	bsf	12,0
  5422  0DC3  128C               	bcf	12,5
  5423  0DC4  160C               	bsf	12,4
  5424  0DC5  0008               	return
  5425                           
  5426                           	psect	text448
  5427  0000                     __ptext448:	
  5428 ;; =============== function _alternate ends ============
  5429                           
  5430  007E                     btemp	set	126	;btemp
  5431  007E                     wtemp0	set	126


HI-TECH Software PICC Macro Assembler V9.83 build 10920 
Symbol Table                                                                                   Thu Mar 18 09:55:47 2021

           ??_jct_massage_off 0073             _jct_massage_reset 0616                            _rc 003F  
          ?_jct_massage_reset 0072                           _GIE 005F                           _isr 0004  
                         wreg 0009    __size_ofi1_jct_massage_off 000B           ??_jct_massage_reset 0073  
                        l1931 04F9                          l1915 0499                          l2492 0000  
                        l1941 0540                          l2486 0000                          l1926 04D5  
                        l1960 05CE                          l1881 0625                          l2489 0000  
                        l1937 0523                          l1890 0000                          l1954 05A1  
                        l1884 0000                          l1956 05B0                          l1965 05FD  
                        l1958 05BF                          l1887 0605                          l9001 0000  
                        l9003 0480                          l9101 0000                          l9021 0000  
                        l9013 048C                          l9111 0000                          l9103 0000  
                        l9023 0000                          l9007 0000                          l9201 0000  
                        l9121 051C                          l9113 0000                          l9105 0000  
                        l9041 0000                          l9025 0000                          l9017 0491  
                        l9009 0000                          l9211 0000                          l9203 0000  
                        l9131 0000                          l9115 0000                          l9107 050C  
                        l9051 04B7                          l9043 04AC                          l9019 0000  
                        ?_isr 0072                          l9301 0000                          l9221 0000  
                        l9213 0000                          l9205 0000                          l9133 0000  
                        l9117 0516                          l9125 0528                          l9061 04C5  
                        l9037 0000                          l9029 0000                          l9303 0000  
                        l9231 0000                          l9223 0000                          l9207 0000  
                        l9215 0587                          l9151 0000                          l9135 0533  
                        l9143 0545                          l9071 04CF                          l9055 0000  
                        l9047 0000                          l9039 0000                          l9313 0000  
                        l9305 05F3                          l9233 0000                          l9225 0000  
                        l9241 0599                          l9209 0000                          l9161 0000  
                        l9153 0554                          l9129 0000                          l9065 0000  
                        l9057 0000                          l9049 0000                          l9251 05A8  
                        l9235 0000                          l9227 0000                          l9219 0000  
                        l9171 0000                          l9163 0000                          l9147 0000  
                        l9139 0539                          l9083 0000                          l9075 0000  
                        l9067 0000                          l9059 0000                          l9309 0000  
                        l9261 05B7                          l9245 0000                          l9237 0000  
                        l9229 0000                          l9181 0000                          l9173 0000  
                        l9165 0000                          l9149 0000                          l9093 04F2  
                        l9085 0000                          l9069 0000                          l9271 05C6  
                        l9255 0000                          l9239 0000                          l9191 0000  
                        l9175 0000                          l9167 0000                          l9183 056C  
                        l9087 0000                          l9079 04E1                          l9281 05D5  
                        l9265 0000                          l9249 0000                          l9193 0000  
                        l9177 0000                          l9169 0000                          l9089 04EC  
                        l9097 04FE                          l9275 0000                          l9259 0000  
                        l9195 0000                          l9179 0000                          l9293 0000  
                        l9285 0000                          l9269 0000                          l9197 0000  
                        l8901 0000                          l9295 0000                          l9287 0000  
                        l9279 0000                          l9199 0000                          l8911 0000  
                        l8903 0000                          l9297 05E9                          l9289 05DF  
                        l8921 0000                          l8913 0000                          l8905 0000  
                        l8931 0414                          l8923 0000                          l8915 0000  
                        l8907 0000                          l8941 0000                          l8933 0000  
                        l8925 0000                          l8917 0000                          l8909 0000  
                        l8951 0429                          l8943 0000                          l8935 0000  
                        l8927 0000                          l8919 0000                          l8865 0000  
                        l8881 0000                          l8961 0440                          l8953 0000  
                        l8937 041B                          l8929 0411                          l8875 0000  
                        l8891 0000                          l8883 0000                          l8955 0000  
                        l8939 0000                          l8869 0000                          l8877 0000  
                        l8893 0000                          l8885 0000                          l8981 045D  
                        l8957 0439                          l8879 0000                          l8895 0000  
                        l8887 0000                          l8991 0000                          l8983 0000  
                        l8967 0000                          l8975 045B                          l8959 043C  
                        l8889 0000                          l8897 0000                          l8985 0000  
                        l8987 0000                          l8899 0000                          _CREN 0CEC  
                        _FERR 0CEA                          _LATA 010C                          _LATB 010D  
                        _LATC 010E                          _RCIF 008D                          _OERR 0CE9  
                        _SPEN 0CEF                          _TXIF 008C                          _WPUB 020D  
                        _main 03E6                          _wave 00C7                          fsr0h 0005  
                        fsr1h 0007                          fsr0l 0004                          indf0 0000  
                        indf1 0001                          fsr1l 0006                          btemp 007E  
                        start 00C4     __end_of_jct_massage_reset 0624                         ??_isr 0072  
                       ?_main 0072                         ?_wave 0072                         _LATA0 0860  
                       _LATA1 0861                         _LATA2 0862                         _LATB1 0869  
                       _LATA3 0863                         _LATB2 086A                         _LATA4 0864  
                       _LATB3 086B                         _LATA5 0865                         _LATB4 086C  
                       _LATA7 0867                         _RCREG 0199                         _RCSTA 019D  
                       _SPBRG 019B                         _TRISA 008C                         _TRISB 008D  
                       _TRISC 008E                         _TXREG 019A                         _TXSTA 019E  
                       _getch 0605                         _timer 0041                         _power 003D  
                       _pulse 0DC6                         _putch 0624                         main@c 004B  
                       main@i 0047                         main@q 0045                         wtemp0 007E  
              _jct_massage_on 062B                  __end_of_main 0605                  __end_of_wave 03C0  
__size_ofi1_jct_massage_reset 000E                        ??_main 0074                        ??_wave 0072  
                      ?_getch 0072               _massage_timeout 0032                        ?_pulse 0072  
                      _ANSELA 018C                        ?_putch 0072                        _ANSELB 018D  
                      i1l2001 00CD                        i1l2143 03B9                        i1l2164 0DCC  
                      i1l2362 0FE4                        i1l2391 0C01                        i1l2492 0000  
                      i1l2477 0DB0                        i1l2489 0000                        i1l7011 0000  
                      i1l7013 0000                        i1l7015 0CA7                        i1l7031 0D2C  
                      i1l7121 0000                        i1l7033 0000                        i1l7009 0D23  
                      i1l8001 0F7C                        i1l7035 0000                        i1l7211 0310  
                      i1l8003 0EA3                        i1l1979 004F                        i1l1988 0096  
                      i1l7141 0D98                        i1l7037 0CB6                        i1l7053 0D35  
                      i1l7221 011F                        i1l7213 010B                        i1l8101 0ED9  
                      i1l8005 0000                        i1l1998 00C0                        i1l7143 0000  
                      i1l7119 0D80                        i1l7055 0000                        i1l7057 0000  
                      i1l7305 0180                        i1l7241 0000                        i1l7217 0000  
                      i1l7233 0313                        i1l8009 0000                        i1l7059 0CC5  
                      i1l7075 0D3E                        i1l7331 0000                        i1l7323 0325  
                      i1l7243 0136                        i1l7235 0122                        i1l7163 0000  
                      i1l7077 0000                        i1l7325 0000                        i1l7261 0141  
                      i1l7165 0000                        i1l8221 0F97                        i1l8053 0000  
                      i1l7511 025C                        i1l7431 0000                        i1l7407 01EC  
                      i1l7327 0185                        i1l7271 015A                        i1l7247 0139  
                      i1l7255 0316                        i1l7191 00F4                        i1l7183 00EA  
                      i1l7167 00CF                        i1l8223 0000                        i1l8055 0000  
                      i1l8047 0F7F                        i1l7097 0D68                        i1l7601 0000  
                      i1l7513 0000                        i1l7505 0340                        i1l7441 020E  
                      i1l7433 0000                        i1l7425 0331                        i1l7361 0000  
                      i1l7257 0000                        i1l7193 0000                        i1l7177 00E7  
                      i1l7169 0000                        i1l8225 0F09                        i1l8161 0000  
                      i1l8049 0EBE                        i1l6801 0000                        i1l7099 0000  
                      i1l7603 0000                        i1l7531 0286                        i1l7507 0000  
                      i1l7427 01EF                        i1l7363 0000                        i1l7291 0000  
                      i1l7275 015F                        i1l7259 0000                        i1l7179 00F0  
                      i1l8227 0000                        i1l8163 0EF1                        i1l6811 0000  
                      i1l6901 0000                        i1l7605 0000                        i1l7509 0000  
                      i1l7461 0000                        i1l7445 0211                        i1l7373 01C5  
                      i1l7357 032B                        i1l7293 0164                        i1l7189 030D  
                      i1l8229 0000                        i1l8165 0000                        i1l8157 0F8E  
                      i1l8093 0F82                        i1l7701 0000                        i1l6821 0000  
                      i1l6805 0098                        i1l6741 0000                        i1l6903 0000  
                      i1l6831 0000                        i1l7623 02EB                        i1l7551 0349  
                      i1l7463 0000                        i1l7359 01A6                        i1l7391 032E  
                      i1l7295 0000                        i1l7199 0108                        i1l8351 0000  
                      i1l8159 0000                        i1l8095 0000                        i1l7703 0000  
                      i1l8431 0000                        i1l6823 00B9                        i1l6815 00AC  
                      i1l6751 0000                        i1l6905 0000                        i1l6921 0CFC  
                      i1l6841 0000                        i1l6833 0C03                        i1l7553 0000  
                      i1l7481 023F                        i1l7465 0000                        i1l7393 01CD  
                      i1l7377 01C8                        i1l7289 031F                        i1l8353 0000  
                      i1l8329 0F38                        i1l8097 0000                        i1l7801 0E48  
                      i1l7705 0DCE                        i1l8441 0000                        i1l8433 0000  
                      i1l6825 0000                        i1l6817 0000                        i1l6809 00A2  
                      i1l6761 002B                        i1l6745 0000                        i1l6931 0C5E  
                      i1l6923 0000                        i1l6907 0C51                        i1l6843 0C1B  
                      i1l6835 0000                        i1l7651 0000                        i1l7619 02E8  
                      i1l7643 0352                        i1l7555 0292                        i1l7467 021E  
                      i1l7459 0334                        i1l7395 0000                        i1l8355 0000  
                      i1l8291 0000                        i1l8099 0000                        i1l7723 0DEE  
                      i1l7731 0F57                        i1l7707 0000                        i1l8443 0000  
                      i1l8435 0000                        i1l6819 00B2                        i1l6827 00BF  
                      i1l6771 0000                        i1l6755 0000                        i1l6925 0000  
                      i1l6909 0C55                        i1l6861 0000                        i1l6853 0CD4  
                      i1l6845 0C4C                        i1l6837 0000                        i1l6829 0000  
                      i1l7645 0000                        i1l7557 0000                        i1l7485 0245  
                      i1l8357 0000                        i1l8293 0000                        i1l8349 0FA0  
                      i1l8285 0F9D                        i1l7821 0000                        i1l7733 0F5B  
                      i1l8445 0000                        i1l8437 0000                        i1l6781 0057  
                      i1l6765 0000                        i1l6757 0000                        i1l6935 0C61  
                      i1l6927 0000                        i1l6943 0D08                        i1l6871 0C32  
                      i1l6863 0C22                        i1l6839 0000                        i1l6855 0CD8  
                      i1l7647 0000                        i1l7559 0000                        i1l7399 0000  
                      i1l8287 0F1B                        i1l7911 0000                        i1l7823 0E4F  
                      i1l7735 0DF9                        i1l7727 0F50                        i1l7719 0DF4  
                      i1l8439 0000                        i1l8447 0000                        i1l6775 0000  
                      i1l6759 0000                        i1l6783 005A                        i1l6945 0000  
                      i1l6929 0C5A                        i1l6881 0000                        i1l6857 0000  
                      i1l6849 0C1E                        i1l7649 0000                        i1l8289 0000  
                      i1l7913 0E76                        i1l7817 0F64                        i1l7737 0000  
                      i1l7761 0F5E                        i1l7729 0000                        i1l6793 0000  
                      i1l6785 0000                        i1l6777 0000                        i1l6769 0039  
                      i1l6971 0C89                        i1l6947 0000                        i1l6883 0000  
                      i1l6859 0000                        i1l7675 0391                        i1l8395 0F3F  
                      i1l7819 0000                        i1l7763 0E15                        i1l6795 007E  
                      i1l6779 0000                        i1l6949 0C6E                        i1l6965 0D11  
                      i1l6893 0C46                        i1l6885 0C36                        i1l6877 0CE4  
                      i1l7597 034F                        i1l7917 0000                        i1l7909 0F73  
                      i1l7773 0E2C                        i1l6797 0000                        i1l6789 006B  
                      i1l6991 0000                        i1l6967 0000                        i1l6879 0000  
                      i1l7599 02BE                        i1l7863 0F6D                        i1l7791 0E31  
                      i1l7767 0000                        i1l6799 0084                        _INTCON 000B  
                      i1l6993 0C98                        i1l6969 0000                        i1l7961 0000  
                      i1l7865 0000                        i1l6987 0D1A                        i1l6899 0CF0  
                      i1l7955 0F79                        i1l7867 0E64                        i1l6989 0000  
                      i1l7957 0E88                        i1l7869 0000                        i1l7797 0000  
                      i1l7789 0F61                        i1l7959 0000                        u510_25 0C7A  
                      u511_25 0C86                        u505_25 0C6B                        u522_25 0CA4  
                      u611_25 0194                        u603_25 0173                        u540_25 0CD1  
                      u516_25 0C95                        u620_25 01C3                        u612_25 019F  
                      u604_25 017E                        u534_25 0CC2                        u710_25 0E25  
                      u703_25 0E09                        u463_25 0045                        u552_25 0D7D  
                      u528_25 0CB3                        u480_25 0C19                        u800_25 0F06  
                      u464_25 0066                        u465_25 0075                        _OSCCON 0099  
                      u546_25 0D53                        u810_25 0F18                        u547_25 0D5F  
                      u643_25 0227                        u635_25 0201                        u627_25 01DF  
                      u619_25 01B8                        u571_25 00E5                        u564_25 0DAD  
                      u644_25 0232                        u636_25 020C                        u628_25 01EA  
                      u724_25 0E5B                        u493_25 0C44                        u653_25 0268  
                      u645_25 023D                        u717_25 0E41                        u469_25 0091  
                      u558_25 0D95                        u654_25 0273                        u646_25 024E  
                      u734_25 0E73                        u487_25 0C30                        u663_25 02A1  
                      u655_25 027E                        u647_25 0259                        u583_25 011D  
                      u823_25 0F2D                        u664_25 02AC                        u656_25 028F  
                      u744_25 0E85                        u673_25 02D0                        u665_25 02B7  
                      u577_25 0106                        u674_25 02DB                        u842_25 0FC7  
                      u826_25 0F36                        u754_25 0E9A                        u683_25 0367  
                      u675_25 02E6                        u595_25 014D                        u684_25 0372  
                      u676_25 02F4                        u596_25 0158                        u844_25 0F4E  
                      u836_25 0FB5                        u764_25 0EB5                        _TMR0IE 005D  
                      _TMR0IF 005A                        u685_25 037D                        u677_25 02FF  
                      u589_25 0134                        u845_25 0FD0                        u686_25 0388  
                      u678_25 0308                        u774_25 0ED0                        u687_25 039A  
                      u847_25 0FE1                        u839_25 0FBE                        _SPBRGH 019C  
                      _SPBRGL 019B                        u688_25 03A5                        u784_25 0EDF  
                      u696_25 0DE4        __end_of_jct_massage_on 063C                        u689_25 03B0  
                      u787_25 0EE8                        u797_25 0EFD                        _TRISC6 0476  
                      _TRISC7 0477    __size_of_jct_massage_reset 000E                        _alt_en 0052  
                      _m_flag 003C                        _wav_en 0043                        _pul_en 003E  
                      _vent_c 0050                        _vent_t 0042                        clrloop 0673  
             ?_jct_massage_on 0072               _jct_massage_off 060B                __pcstackCOMMON 0072  
                __pidataBANK0 0000                 __end_of_getch 060B                 __end_of_pulse 0FEB  
               __end_of_putch 062B            __size_of_alternate 01BC                       ??_getch 0073  
                     ??_pulse 0072                       ??_putch 0073                    __pbssBANK0 0020  
                  __pmaintext 03E6                    __pintentry 0004                       _BAUDCON 019F  
                  _heat_reset 003B       __end_of_jct_massage_off 0616           i1_jct_massage_reset 0659  
           __end_of_alternate 0DB7                       _a_count 002C          ?i1_jct_massage_reset 0072  
                _heat_timeout 0030                       _heat_en 003A                   _TimerReload 002A  
                     _p_count 0034                       _last_rc 0020                  __size_of_isr 00C0  
                     _w_count 0070                       _z_count 0038                       _tx_char 0025  
        end_of_initialization 03E4         ??i1_jct_massage_reset 0072                  _comm_timeout 002E  
            ??_jct_massage_on 0073              ?_jct_massage_off 0072                    main@i_3031 004C  
                  main@i_3032 0049           start_initialization 03CF                   __end_of_isr 00C4  
                 __pdataBANK0 004E                   __pbssCOMMON 0070                 __pcstackBANK0 0044  
                   __ptext440 0605                     __ptext441 0624                     __ptext443 0659  
                   __ptext444 0667                     __ptext445 0DC6                     __ptext437 0616  
                   __ptext446 00C7                     __ptext438 060B                     __ptext447 0BFB  
                   __ptext439 062B                     __ptext448 0000                     _alternate 0BFB  
              __size_of_getch 0006                __size_of_pulse 0225                __size_of_putch 0007  
                  ?_alternate 0072                     _pwm_count 0036   __end_ofi1_jct_massage_reset 0667  
           i1_jct_massage_off 0667            ?i1_jct_massage_off 0072                 __size_of_main 021F  
                    _rc_error 0040                 __size_of_wave 02F9      __size_of_jct_massage_off 000B  
                    clear_ram 0672           ??i1_jct_massage_off 0072                      _time_out 004E  
                 ??_alternate 0072                      main@echo 0044                      _zone0_en 0053  
                    _zone1_en 0054                      _zone2_en 0055                      _zone3_en 0056  
                   putch@byte 0073     __end_ofi1_jct_massage_off 0672                      intlevel1 0000  
     __size_of_jct_massage_on 0011                    _OPTION_REG 0095  
